
wifi_test.elf:     file format elf32-littlenios2
wifi_test.elf
architecture: nios2:r1, flags 0x00000112:
EXEC_P, HAS_SYMS, D_PAGED
start address 0x080001bc

Program Header:
    LOAD off    0x00001000 vaddr 0x08000000 paddr 0x08000000 align 2**12
         filesz 0x00000020 memsz 0x00000020 flags r-x
    LOAD off    0x00001020 vaddr 0x08000020 paddr 0x08000020 align 2**12
         filesz 0x00010990 memsz 0x00010990 flags r-x
    LOAD off    0x000119b0 vaddr 0x080109b0 paddr 0x080124c8 align 2**12
         filesz 0x00001b18 memsz 0x00001b18 flags rw-
    LOAD off    0x00013fe0 vaddr 0x08013fe0 paddr 0x08013fe0 align 2**12
         filesz 0x00000000 memsz 0x0000055c flags rw-

Sections:
Idx Name          Size      VMA       LMA       File off  Algn
  0 .entry        00000020  08000000  08000000  00001000  2**5
                  CONTENTS, ALLOC, LOAD, READONLY, CODE
  1 .exceptions   0000019c  08000020  08000020  00001020  2**2
                  CONTENTS, ALLOC, LOAD, READONLY, CODE
  2 .text         0001046c  080001bc  080001bc  000011bc  2**2
                  CONTENTS, ALLOC, LOAD, READONLY, CODE
  3 .rodata       00000388  08010628  08010628  00011628  2**2
                  CONTENTS, ALLOC, LOAD, READONLY, DATA
  4 .rwdata       00001b18  080109b0  080124c8  000119b0  2**2
                  CONTENTS, ALLOC, LOAD, DATA, SMALL_DATA
  5 .bss          0000055c  08013fe0  08013fe0  00013fe0  2**2
                  ALLOC, SMALL_DATA
  6 .sdram        00000000  0801453c  0801453c  000134c8  2**0
                  CONTENTS
  7 .comment      00000023  00000000  00000000  000134c8  2**0
                  CONTENTS, READONLY
  8 .debug_aranges 00000d88  00000000  00000000  000134f0  2**3
                  CONTENTS, READONLY, DEBUGGING
  9 .debug_info   0002516a  00000000  00000000  00014278  2**0
                  CONTENTS, READONLY, DEBUGGING
 10 .debug_abbrev 00009697  00000000  00000000  000393e2  2**0
                  CONTENTS, READONLY, DEBUGGING
 11 .debug_line   0000b67d  00000000  00000000  00042a79  2**0
                  CONTENTS, READONLY, DEBUGGING
 12 .debug_frame  00002658  00000000  00000000  0004e0f8  2**2
                  CONTENTS, READONLY, DEBUGGING
 13 .debug_str    00003676  00000000  00000000  00050750  2**0
                  CONTENTS, READONLY, DEBUGGING
 14 .debug_loc    00016f65  00000000  00000000  00053dc6  2**0
                  CONTENTS, READONLY, DEBUGGING
 15 .debug_alt_sim_info 00000040  00000000  00000000  0006ad2c  2**2
                  CONTENTS, READONLY, DEBUGGING
 16 .debug_ranges 00001370  00000000  00000000  0006ad70  2**3
                  CONTENTS, READONLY, DEBUGGING
 17 .thread_model 00000003  00000000  00000000  0006f776  2**0
                  CONTENTS, READONLY
 18 .cpu          0000000c  00000000  00000000  0006f779  2**0
                  CONTENTS, READONLY
 19 .qsys         00000001  00000000  00000000  0006f785  2**0
                  CONTENTS, READONLY
 20 .simulation_enabled 00000001  00000000  00000000  0006f786  2**0
                  CONTENTS, READONLY
 21 .stderr_dev   0000000b  00000000  00000000  0006f787  2**0
                  CONTENTS, READONLY
 22 .stdin_dev    0000000b  00000000  00000000  0006f792  2**0
                  CONTENTS, READONLY
 23 .stdout_dev   0000000b  00000000  00000000  0006f79d  2**0
                  CONTENTS, READONLY
 24 .sopc_system_name 0000000b  00000000  00000000  0006f7a8  2**0
                  CONTENTS, READONLY
 25 .quartus_project_dir 00000019  00000000  00000000  0006f7b3  2**0
                  CONTENTS, READONLY
 26 .jdi          0000437f  00000000  00000000  0006f7cc  2**0
                  CONTENTS, READONLY
 27 .sopcinfo     0006b8c6  00000000  00000000  00073b4b  2**0
                  CONTENTS, READONLY
SYMBOL TABLE:
08000000 l    d  .entry	00000000 .entry
08000020 l    d  .exceptions	00000000 .exceptions
080001bc l    d  .text	00000000 .text
08010628 l    d  .rodata	00000000 .rodata
080109b0 l    d  .rwdata	00000000 .rwdata
08013fe0 l    d  .bss	00000000 .bss
0801453c l    d  .sdram	00000000 .sdram
00000000 l    d  .comment	00000000 .comment
00000000 l    d  .debug_aranges	00000000 .debug_aranges
00000000 l    d  .debug_info	00000000 .debug_info
00000000 l    d  .debug_abbrev	00000000 .debug_abbrev
00000000 l    d  .debug_line	00000000 .debug_line
00000000 l    d  .debug_frame	00000000 .debug_frame
00000000 l    d  .debug_str	00000000 .debug_str
00000000 l    d  .debug_loc	00000000 .debug_loc
00000000 l    d  .debug_alt_sim_info	00000000 .debug_alt_sim_info
00000000 l    d  .debug_ranges	00000000 .debug_ranges
00000000 l    df *ABS*	00000000 ../wifi_test_bsp//obj/HAL/src/crt0.o
080001f4 l       .text	00000000 alt_after_alt_main
00000000 l    df *ABS*	00000000 alt_exception_entry.o
08000094 l       .exceptions	00000000 alt_exception_unknown
00000000 l    df *ABS*	00000000 alt_irq_handler.c
00000000 l    df *ABS*	00000000 main.c
00000000 l    df *ABS*	00000000 serial.c
00000000 l    df *ABS*	00000000 divdf3.c
00000000 l    df *ABS*	00000000 muldf3.c
00000000 l    df *ABS*	00000000 fixdfsi.c
00000000 l    df *ABS*	00000000 floatunsidf.c
00000000 l    df *ABS*	00000000 libgcc2.c
00000000 l    df *ABS*	00000000 lib2-divmod.c
08002078 l     F .text	0000006c udivmodsi4
00000000 l    df *ABS*	00000000 lib2-mul.c
00000000 l    df *ABS*	00000000 libgcc2.c
00000000 l    df *ABS*	00000000 printf.c
00000000 l    df *ABS*	00000000 putchar.c
00000000 l    df *ABS*	00000000 puts.c
00000000 l    df *ABS*	00000000 strlen.c
00000000 l    df *ABS*	00000000 vfprintf.c
080107de l     O .rodata	00000010 zeroes.4181
080107ee l     O .rodata	00000010 blanks.4180
00000000 l    df *ABS*	00000000 wsetup.c
00000000 l    df *ABS*	00000000 dtoa.c
08004608 l     F .text	00000228 quorem
00000000 l    df *ABS*	00000000 fflush.c
00000000 l    df *ABS*	00000000 findfp.c
080061b0 l     F .text	00000008 __fp_lock
080061b8 l     F .text	00000008 __fp_unlock
080061cc l     F .text	000001a0 __sinit.part.1
00000000 l    df *ABS*	00000000 mallocr.c
00000000 l    df *ABS*	00000000 fvwrite.c
00000000 l    df *ABS*	00000000 fwalk.c
00000000 l    df *ABS*	00000000 impure.c
080109b0 l     O .rwdata	00000424 impure_data
00000000 l    df *ABS*	00000000 locale.c
08010df4 l     O .rwdata	00000020 lc_ctype_charset
08010dd4 l     O .rwdata	00000020 lc_message_charset
08010e14 l     O .rwdata	00000038 lconv
00000000 l    df *ABS*	00000000 makebuf.c
00000000 l    df *ABS*	00000000 mallocr.c
00000000 l    df *ABS*	00000000 memchr.c
00000000 l    df *ABS*	00000000 memcpy.c
00000000 l    df *ABS*	00000000 memmove.c
00000000 l    df *ABS*	00000000 memset.c
00000000 l    df *ABS*	00000000 mprec.c
08010820 l     O .rodata	0000000c p05.2678
00000000 l    df *ABS*	00000000 putc.c
00000000 l    df *ABS*	00000000 mallocr.c
00000000 l    df *ABS*	00000000 s_fpclassify.c
00000000 l    df *ABS*	00000000 sbrkr.c
00000000 l    df *ABS*	00000000 stdio.c
00000000 l    df *ABS*	00000000 strcmp.c
00000000 l    df *ABS*	00000000 vfprintf.c
08009864 l     F .text	000000fc __sprint_r.part.0
08010954 l     O .rodata	00000010 blanks.4125
08010944 l     O .rodata	00000010 zeroes.4126
00000000 l    df *ABS*	00000000 wbuf.c
00000000 l    df *ABS*	00000000 writer.c
00000000 l    df *ABS*	00000000 closer.c
00000000 l    df *ABS*	00000000 mallocr.c
00000000 l    df *ABS*	00000000 fclose.c
00000000 l    df *ABS*	00000000 fputwc.c
00000000 l    df *ABS*	00000000 fstatr.c
00000000 l    df *ABS*	00000000 int_errno.c
00000000 l    df *ABS*	00000000 isattyr.c
00000000 l    df *ABS*	00000000 lseekr.c
00000000 l    df *ABS*	00000000 readr.c
00000000 l    df *ABS*	00000000 wcrtomb.c
00000000 l    df *ABS*	00000000 wctomb_r.c
00000000 l    df *ABS*	00000000 libgcc2.c
00000000 l    df *ABS*	00000000 libgcc2.c
00000000 l    df *ABS*	00000000 adddf3.c
00000000 l    df *ABS*	00000000 eqdf2.c
00000000 l    df *ABS*	00000000 gedf2.c
00000000 l    df *ABS*	00000000 ledf2.c
00000000 l    df *ABS*	00000000 subdf3.c
00000000 l    df *ABS*	00000000 floatsidf.c
00000000 l    df *ABS*	00000000 alt_close.c
0800d7e8 l     F .text	00000050 alt_get_errno
00000000 l    df *ABS*	00000000 alt_dev.c
0800d910 l     F .text	0000002c alt_dev_null_write
00000000 l    df *ABS*	00000000 alt_errno.c
00000000 l    df *ABS*	00000000 alt_fstat.c
0800d93c l     F .text	00000050 alt_get_errno
00000000 l    df *ABS*	00000000 alt_isatty.c
0800da44 l     F .text	00000050 alt_get_errno
00000000 l    df *ABS*	00000000 alt_load.c
0800db40 l     F .text	00000064 alt_load_section
00000000 l    df *ABS*	00000000 alt_lseek.c
0800dc24 l     F .text	00000050 alt_get_errno
00000000 l    df *ABS*	00000000 alt_main.c
00000000 l    df *ABS*	00000000 alt_malloc_lock.c
00000000 l    df *ABS*	00000000 alt_read.c
0800de08 l     F .text	00000050 alt_get_errno
00000000 l    df *ABS*	00000000 alt_release_fd.c
00000000 l    df *ABS*	00000000 alt_sbrk.c
080124b8 l     O .rwdata	00000004 heap_end
00000000 l    df *ABS*	00000000 alt_usleep.c
00000000 l    df *ABS*	00000000 alt_write.c
0800e0bc l     F .text	00000050 alt_get_errno
00000000 l    df *ABS*	00000000 alt_sys_init.c
0800e20c l     F .text	00000038 alt_dev_reg
080113fc l     O .rwdata	00001060 jtag_uart_0
0801245c l     O .rwdata	0000002c character_lcd_0
00000000 l    df *ABS*	00000000 altera_avalon_jtag_uart_fd.c
00000000 l    df *ABS*	00000000 altera_avalon_jtag_uart_init.c
0800e510 l     F .text	00000204 altera_avalon_jtag_uart_irq
0800e714 l     F .text	000000a8 altera_avalon_jtag_uart_timeout
00000000 l    df *ABS*	00000000 altera_avalon_jtag_uart_ioctl.c
00000000 l    df *ABS*	00000000 altera_avalon_jtag_uart_read.c
00000000 l    df *ABS*	00000000 altera_avalon_jtag_uart_write.c
00000000 l    df *ABS*	00000000 altera_avalon_timer_sc.c
0800ed34 l     F .text	00000074 alt_avalon_timer_sc_irq
00000000 l    df *ABS*	00000000 altera_up_avalon_character_lcd.c
00000000 l    df *ABS*	00000000 alt_alarm_start.c
00000000 l    df *ABS*	00000000 alt_busy_sleep.c
00000000 l    df *ABS*	00000000 alt_dcache_flush_all.c
00000000 l    df *ABS*	00000000 alt_dev_llist_insert.c
0800f5bc l     F .text	00000050 alt_get_errno
00000000 l    df *ABS*	00000000 alt_do_ctors.c
00000000 l    df *ABS*	00000000 alt_do_dtors.c
00000000 l    df *ABS*	00000000 alt_find_dev.c
00000000 l    df *ABS*	00000000 alt_icache_flush_all.c
00000000 l    df *ABS*	00000000 alt_iic.c
00000000 l    df *ABS*	00000000 alt_iic_isr_register.c
00000000 l    df *ABS*	00000000 alt_io_redirect.c
0800fae4 l     F .text	000000e0 alt_open_fd
00000000 l    df *ABS*	00000000 alt_irq_vars.c
00000000 l    df *ABS*	00000000 alt_open.c
0800fc3c l     F .text	00000050 alt_get_errno
0800fc8c l     F .text	000000f4 alt_file_locked
00000000 l    df *ABS*	00000000 alt_tick.c
00000000 l    df *ABS*	00000000 altera_nios2_qsys_irq.c
00000000 l    df *ABS*	00000000 alt_find_file.c
00000000 l    df *ABS*	00000000 alt_get_fd.c
00000000 l    df *ABS*	00000000 atexit.c
00000000 l    df *ABS*	00000000 exit.c
00000000 l    df *ABS*	00000000 memcmp.c
00000000 l    df *ABS*	00000000 __atexit.c
00000000 l    df *ABS*	00000000 __call_atexit.c
00000000 l    df *ABS*	00000000 alt_exit.c
0800223c g     F .text	00000018 putchar
08008d3c g     F .text	00000074 _mprec_log10
08008e28 g     F .text	0000008c __any_on
0800b400 g     F .text	00000054 _isatty_r
0801082c g     O .rodata	00000028 __mprec_tinytens
0800dd50 g     F .text	00000078 alt_main
08002254 g     F .text	000000b8 _puts_r
0801443c g     O .bss	00000100 alt_irq
0800b454 g     F .text	0000005c _lseek_r
080124c8 g       *ABS*	00000000 __flash_rwdata_start
0800eea4 g     F .text	0000003c alt_up_character_lcd_send_cmd
0800cc04 g     F .text	00000084 .hidden __eqdf2
0801453c g       *ABS*	00000000 __alt_heap_start
080021f8 g     F .text	0000003c printf
0800b50c g     F .text	0000009c _wcrtomb_r
0800975c g     F .text	0000005c __sseek
08006514 g     F .text	00000010 __sinit
0800adc0 g     F .text	00000154 __swbuf_r
08006f8c g     F .text	0000007c _setlocale_r
0800636c g     F .text	00000078 __sfmoreglue
0800dde8 g     F .text	00000020 __malloc_unlock
08000600 g     F .text	0000004c TS_ReadRx
08007bec g     F .text	0000015c memmove
080064fc g     F .text	00000018 _cleanup
08007e6c g     F .text	000000a8 _Balloc
0800cc88 g     F .text	000000e0 .hidden __gtdf2
00000000  w      *UND*	00000000 __errno
0800ee30 g     F .text	00000074 get_DDRAM_addr
08000000 g     F .entry	0000000c __reset
08000020 g       *ABS*	00000000 __flash_exceptions_start
0800b3a8 g     F .text	00000058 _fstat_r
08013ff8 g     O .bss	00000004 errno
080096d8 g     F .text	00000008 __seofread
08014000 g     O .bss	00000004 alt_argv
0801a488 g       *ABS*	00000000 _gp
0800e08c g     F .text	00000030 usleep
08000898 g     F .text	00000050 putcharRS232
0801127c g     O .rwdata	00000180 alt_fd_list
08000930 g     F .text	00000038 RS232TestForReceivedData
08002234 g     F .text	00000008 _putchar_r
0800f768 g     F .text	00000090 alt_find_dev
08007ab4 g     F .text	00000138 memcpy
0800f040 g     F .text	00000050 alt_up_character_lcd_write_fd
0800084c g     F .text	0000004c Init_RS232
080061c0 g     F .text	0000000c _cleanup_r
0800d718 g     F .text	000000d0 .hidden __floatsidf
0800fbc4 g     F .text	00000078 alt_io_redirect
0800cd68 g     F .text	000000e0 .hidden __ltdf2
08010628 g       *ABS*	00000000 __DTOR_END__
0800230c g     F .text	00000014 puts
080009c8 g     F .text	00000070 Wifi_ReadResponse
080095bc g     F .text	00000074 __fpclassifyd
08008c98 g     F .text	000000a4 __ratio
0800ad9c g     F .text	00000024 __vfiprintf_internal
0800e910 g     F .text	0000020c altera_avalon_jtag_uart_read
00000000  w      *UND*	00000000 malloc
080021cc g     F .text	0000002c _printf_r
08002194 g     F .text	00000008 .hidden __udivsi3
0800da94 g     F .text	000000ac isatty
0801087c g     O .rodata	000000c8 __mprec_tens
08007008 g     F .text	0000000c __locale_charset
08013ff4 g     O .bss	00000004 __malloc_top_pad
08012490 g     O .rwdata	00000004 __mb_cur_max
08007038 g     F .text	0000000c _localeconv_r
08008294 g     F .text	0000003c __i2b
08006978 g     F .text	000004a4 __sfvwrite_r
08009630 g     F .text	00000054 _sbrk_r
0800b4b0 g     F .text	0000005c _read_r
080124b0 g     O .rwdata	00000004 alt_max_fd
0800b0b8 g     F .text	00000100 _fclose_r
08000394 g     F .text	0000003c TS_EnableTouch
08006180 g     F .text	00000030 fflush
08013ff0 g     O .bss	00000004 __malloc_max_sbrked_mem
0800c368 g     F .text	0000089c .hidden __adddf3
08008a40 g     F .text	0000011c __b2d
0800bd4c g     F .text	0000061c .hidden __umoddi3
0800dc74 g     F .text	000000dc lseek
08012488 g     O .rwdata	00000004 _global_impure_ptr
0800901c g     F .text	000005a0 _realloc_r
0801453c g       *ABS*	00000000 __bss_end
0800f9f4 g     F .text	000000f0 alt_iic_isr_register
0800ff78 g     F .text	00000104 alt_tick
0800b70c g     F .text	00000640 .hidden __udivdi3
0800b1cc g     F .text	00000184 _fputwc_r
08010854 g     O .rodata	00000028 __mprec_bigtens
08008078 g     F .text	00000104 __s2b
08001f70 g     F .text	000000a4 .hidden __floatunsidf
080087e8 g     F .text	00000060 __mcmp
0801403c g     O .bss	00000200 rbuf
08006534 g     F .text	00000018 __fp_lock_all
0800f9a8 g     F .text	0000004c alt_ic_irq_enabled
0800fee0 g     F .text	00000098 alt_alarm_stop
08014008 g     O .bss	00000004 alt_irq_active
08000358 g     F .text	0000003c TS_DisableTouch
080000ec g     F .exceptions	000000d0 alt_irq_handler
08011254 g     O .rwdata	00000028 alt_dev_null
0800f2d4 g     F .text	00000034 alt_up_character_lcd_cursor_blink_on
0800f5a0 g     F .text	0000001c alt_dcache_flush_all
0800817c g     F .text	00000068 __hi0bits
08000968 g     F .text	00000060 Wifi_Init
08001ee8 g     F .text	00000088 .hidden __fixdfsi
080124c8 g       *ABS*	00000000 __ram_rwdata_end
080124a8 g     O .rwdata	00000008 alt_dev_list
0800e10c g     F .text	00000100 write
08008eb4 g     F .text	000000a0 _putc_r
08000300 g     F .text	00000058 TS_Init
080109b0 g       *ABS*	00000000 __ram_rodata_end
0800d98c g     F .text	000000b8 fstat
0800cd68 g     F .text	000000e0 .hidden __ledf2
08008560 g     F .text	00000140 __pow5mult
08009978 g     F .text	00001424 ___vfiprintf_internal_r
08013fe8 g     O .bss	00000004 __nlocale_changed
0800219c g     F .text	00000008 .hidden __umodsi3
0801453c g       *ABS*	00000000 end
0800e44c g     F .text	000000c4 altera_avalon_jtag_uart_init
0800069c g     F .text	000001b0 TS_GetRelease
08010628 g       *ABS*	00000000 __CTOR_LIST__
0c000000 g       *ABS*	00000000 __alt_stack_pointer
0800eda8 g     F .text	00000088 alt_avalon_timer_sc_init
08002014 g     F .text	00000064 .hidden __clzsi2
0800eb1c g     F .text	00000218 altera_avalon_jtag_uart_write
08006524 g     F .text	00000004 __sfp_lock_acquire
080079cc g     F .text	000000e8 memchr
0800ef54 g     F .text	00000078 alt_up_character_lcd_write
080023b8 g     F .text	000020fc ___vfprintf_internal_r
08006688 g     F .text	000002f0 _free_r
08007014 g     F .text	00000010 __locale_mb_cur_max
08010460 g     F .text	00000194 __call_exitprocs
08013fe4 g     O .bss	00000004 __mlocale_changed
08012494 g     O .rwdata	00000004 __malloc_sbrk_base
080001bc g     F .text	0000003c _start
0801400c g     O .bss	00000004 _alt_tick_rate
080086a0 g     F .text	00000148 __lshift
08000450 g     F .text	000001b0 TS_GetPress
08014010 g     O .bss	00000004 _alt_nticks
0800de58 g     F .text	00000104 read
0800e278 g     F .text	00000070 alt_sys_init
0800f18c g     F .text	00000088 alt_up_character_lcd_shift_display
0801034c g     F .text	00000114 __register_exitproc
080082d0 g     F .text	00000290 __multiply
0800f214 g     F .text	0000008c alt_up_character_lcd_erase_pos
0800e7bc g     F .text	00000068 altera_avalon_jtag_uart_close
080021a4 g     F .text	00000028 .hidden __mulsi3
080109b0 g       *ABS*	00000000 __ram_rwdata_start
08010628 g       *ABS*	00000000 __ram_rodata_start
08014014 g     O .bss	00000028 __malloc_current_mallinfo
08008b5c g     F .text	0000013c __d2b
0800e2e8 g     F .text	00000060 altera_avalon_jtag_uart_read_fd
080101b0 g     F .text	000000d4 alt_get_fd
0800f448 g     F .text	00000158 alt_busy_sleep
0800af8c g     F .text	00000054 _close_r
080102d0 g     F .text	0000007c memcmp
0800e3a8 g     F .text	00000050 altera_avalon_jtag_uart_close_fd
0801453c g       *ABS*	00000000 __alt_stack_base
0800e3f8 g     F .text	00000054 altera_avalon_jtag_uart_ioctl_fd
080044d8 g     F .text	00000130 __swsetup_r
08000cfc g     F .text	00000980 .hidden __divdf3
080063e4 g     F .text	00000118 __sfp
08008db0 g     F .text	00000078 __copybits
08010e4c g     O .rwdata	00000408 __malloc_av_
08006530 g     F .text	00000004 __sinit_lock_release
0800167c g     F .text	0000086c .hidden __muldf3
08009684 g     F .text	00000054 __sread
0801009c g     F .text	00000114 alt_find_file
0800f60c g     F .text	000000a4 alt_dev_llist_insert
0800ddc8 g     F .text	00000020 __malloc_lock
0800dfdc g     F .text	000000b0 sbrk
08005f58 g     F .text	00000228 _fflush_r
0800afe0 g     F .text	000000d8 _calloc_r
08013fe0 g       *ABS*	00000000 __bss_start
08007d48 g     F .text	00000124 memset
080001f8 g     F .text	00000108 main
08014004 g     O .bss	00000004 alt_envp
08013fec g     O .bss	00000004 __malloc_max_total_mem
0800e348 g     F .text	00000060 altera_avalon_jtag_uart_write_fd
0800af14 g     F .text	0000001c __swbuf
0800f104 g     F .text	00000088 alt_up_character_lcd_shift_cursor
080097b8 g     F .text	00000008 __sclose
0c000000 g       *ABS*	00000000 __alt_heap_limit
0800b1b8 g     F .text	00000014 fclose
08004830 g     F .text	00001728 _dtoa_r
08007224 g     F .text	000007a8 _malloc_r
0800b680 g     F .text	00000030 __ascii_wctomb
080124b4 g     O .rwdata	00000004 alt_errno
08006e1c g     F .text	000000b8 _fwalk
08008f54 g     F .text	000000c8 putc
080020e4 g     F .text	00000054 .hidden __divsi3
0800ef14 g     F .text	00000040 alt_up_character_lcd_open_dev
08006564 g     F .text	00000124 _malloc_trim_r
08010628 g       *ABS*	00000000 __CTOR_END__
0800eee0 g     F .text	00000034 alt_up_character_lcd_init
080097c0 g     F .text	000000a4 strcmp
08010628 g       *ABS*	00000000 __flash_rodata_start
08010628 g       *ABS*	00000000 __DTOR_LIST__
0800cc04 g     F .text	00000084 .hidden __nedf2
080003d0 g     F .text	00000040 TS_WaitForTouch
0800e244 g     F .text	00000034 alt_irq_init
0800df5c g     F .text	00000080 alt_release_fd
0800f2a0 g     F .text	00000034 alt_up_character_lcd_cursor_off
08010698 g     O .rodata	00000100 .hidden __clz_tab
08013fe0 g     O .bss	00000004 _PathLocale
08010284 g     F .text	00000014 atexit
0800af30 g     F .text	0000005c _write_r
08007044 g     F .text	0000001c setlocale
08000c64 g     F .text	00000048 Wifi_ReadRx
0801423c g     O .bss	00000200 cbuf
0801248c g     O .rwdata	00000004 _impure_ptr
08013ffc g     O .bss	00000004 alt_argc
0800064c g     F .text	00000050 TS_WriteTx
08000410 g     F .text	00000040 TS_WaitForRelease
08000a38 g     F .text	00000038 Wifi_PrintResponse
08000cac g     F .text	00000050 Wifi_WriteTx
0800f70c g     F .text	0000005c _do_dtors
08007030 g     F .text	00000008 __locale_cjk_lang
08000020 g       .exceptions	00000000 alt_irq_entry
080089e0 g     F .text	00000060 __ulp
0800654c g     F .text	00000018 __fp_unlock_all
080124a0 g     O .rwdata	00000008 alt_fs_list
08000bbc g     F .text	000000a8 Wifi_SendCommand
08000020 g       *ABS*	00000000 __ram_exceptions_start
08007060 g     F .text	0000000c localeconv
080008e8 g     F .text	00000048 getcharRS232
0800f814 g     F .text	00000050 alt_ic_isr_register
080124c8 g       *ABS*	00000000 _edata
08000aec g     F .text	00000050 Wifi_ClearBuffer
0801453c g       *ABS*	00000000 _end
080001bc g       *ABS*	00000000 __ram_exceptions_end
0800e824 g     F .text	000000ec altera_avalon_jtag_uart_ioctl
0800f904 g     F .text	000000a4 alt_ic_irq_disable
080096e0 g     F .text	0000007c __swrite
08012498 g     O .rwdata	00000004 __malloc_trim_threshold
0801007c g     F .text	00000020 altera_nios2_qsys_irq_init
08007024 g     F .text	0000000c __locale_msgcharset
08010298 g     F .text	00000038 exit
08006ed4 g     F .text	000000b8 _fwalk_reent
08000a70 g     F .text	0000007c Wifi_CopyBuffer
08008848 g     F .text	00000198 __mdiff
08002138 g     F .text	0000005c .hidden __modsi3
0c000000 g       *ABS*	00000000 __alt_data_end
08000020 g     F .exceptions	00000000 alt_exception
08006528 g     F .text	00000004 __sfp_lock_release
08000000 g       *ABS*	00000000 __alt_mem_sdram
0800efcc g     F .text	00000074 alt_up_character_lcd_string
080105f4 g     F .text	00000034 _exit
0800f308 g     F .text	00000140 alt_alarm_start
0800706c g     F .text	000001b8 __smakebuf_r
08002320 g     F .text	00000098 strlen
0800fd80 g     F .text	00000160 open
0800cc88 g     F .text	000000e0 .hidden __gedf2
0801249c g     O .rwdata	00000004 __wctomb
08009960 g     F .text	00000018 __sprint_r
0800f7f8 g     F .text	0000001c alt_icache_flush_all
0800f090 g     F .text	00000074 alt_up_character_lcd_set_cursor_pos
080124bc g     O .rwdata	00000004 alt_priority_mask
0800f864 g     F .text	000000a0 alt_ic_irq_enable
080044b4 g     F .text	00000024 __vfprintf_internal
0800b6b0 g     F .text	0000005c _wctomb_r
0800ce48 g     F .text	000008d0 .hidden __subdf3
080081e4 g     F .text	000000b0 __lo0bits
080124c0 g     O .rwdata	00000008 alt_alarm_list
0800f6b0 g     F .text	0000005c _do_ctors
0800b5a8 g     F .text	000000d8 wcrtomb
0800d838 g     F .text	000000d8 close
08000b3c g     F .text	00000080 Wifi_WaitReady
0800dba4 g     F .text	00000080 alt_load
0800b350 g     F .text	00000058 fputwc
00000000  w      *UND*	00000000 free
0800652c g     F .text	00000004 __sinit_lock_acquire
08007f3c g     F .text	0000013c __multadd
08007f14 g     F .text	00000028 _Bfree



Disassembly of section .entry:

08000000 <__reset>:
 * Jump to the _start entry point in the .text section if reset code
 * is allowed or if optimizing for RTL simulation.
 */
#if defined(ALT_ALLOW_CODE_AT_RESET) || defined(ALT_SIM_OPTIMIZE)
    /* Jump to the _start entry point in the .text section. */
    movhi r1, %hi(_start)
 8000000:	00420034 	movhi	at,2048
    ori r1, r1, %lo(_start)
 8000004:	08406f14 	ori	at,at,444
    jmp r1
 8000008:	0800683a 	jmp	at
	...

Disassembly of section .exceptions:

08000020 <alt_exception>:

#else /* ALT_EXCEPTION_STACK disabled */
        /* 
         * Reserve space on normal stack for registers about to be pushed.
         */
        addi  sp, sp, -76
 8000020:	deffed04 	addi	sp,sp,-76
         * documentation for details).
         *
         * Leave a gap in the stack frame at 4(sp) for the muldiv handler to
         * store zero into.
         */
        stw   ra,  0(sp)
 8000024:	dfc00015 	stw	ra,0(sp)
        stw   r1,   8(sp)
 8000028:	d8400215 	stw	at,8(sp)
        stw   r2,  12(sp)
 800002c:	d8800315 	stw	r2,12(sp)
        stw   r3,  16(sp)
 8000030:	d8c00415 	stw	r3,16(sp)
        stw   r4,  20(sp)
 8000034:	d9000515 	stw	r4,20(sp)
        stw   r5,  24(sp)
 8000038:	d9400615 	stw	r5,24(sp)
        stw   r6,  28(sp)
 800003c:	d9800715 	stw	r6,28(sp)
        stw   r7,  32(sp)
 8000040:	d9c00815 	stw	r7,32(sp)
        rdctl r5, estatus   /* Read early to avoid usage stall */
 8000044:	000b307a 	rdctl	r5,estatus
        stw   r8,  36(sp)
 8000048:	da000915 	stw	r8,36(sp)
        stw   r9,  40(sp)
 800004c:	da400a15 	stw	r9,40(sp)
        stw   r10, 44(sp)
 8000050:	da800b15 	stw	r10,44(sp)
        stw   r11, 48(sp)
 8000054:	dac00c15 	stw	r11,48(sp)
        stw   r12, 52(sp)
 8000058:	db000d15 	stw	r12,52(sp)
        stw   r13, 56(sp)
 800005c:	db400e15 	stw	r13,56(sp)
        stw   r14, 60(sp)
 8000060:	db800f15 	stw	r14,60(sp)
        stw   r15, 64(sp)
 8000064:	dbc01015 	stw	r15,64(sp)
        /*
         * ea-4 contains the address of the instruction being executed
         * when the exception occured. For interrupt exceptions, we will
         * will be re-issue the isntruction. Store it in 72(sp)
         */
        stw   r5,  68(sp)  /* estatus */
 8000068:	d9401115 	stw	r5,68(sp)
        addi  r15, ea, -4  /* instruction that caused exception */
 800006c:	ebffff04 	addi	r15,ea,-4
        stw   r15,  72(sp)
 8000070:	dbc01215 	stw	r15,72(sp)
#else
        /*
         * Test to see if the exception was a software exception or caused 
         * by an external interrupt, and vector accordingly.
         */
        rdctl r4, ipending
 8000074:	0009313a 	rdctl	r4,ipending
        andi  r2, r5, 1
 8000078:	2880004c 	andi	r2,r5,1
        beq   r2, zero, .Lnot_irq
 800007c:	10000326 	beq	r2,zero,800008c <alt_exception+0x6c>
        beq   r4, zero, .Lnot_irq
 8000080:	20000226 	beq	r4,zero,800008c <alt_exception+0x6c>
        /*
         * Now that all necessary registers have been preserved, call 
         * alt_irq_handler() to process the interrupts.
         */

        call alt_irq_handler
 8000084:	80000ec0 	call	80000ec <alt_irq_handler>

        .section .exceptions.irqreturn, "xa"

        br    .Lexception_exit
 8000088:	00000306 	br	8000098 <alt_exception_unknown+0x4>
         * upon completion, so we write ea (address of instruction *after*
         * the one where the exception occured) into 72(sp). The actual
         * instruction that caused the exception is written in r2, which these
         * handlers will utilize.
         */
        stw   ea,  72(sp)  /* Don't re-issue */
 800008c:	df401215 	stw	ea,72(sp)
        ldw   r2, -4(ea)   /* Instruction that caused exception */
 8000090:	e8bfff17 	ldw	r2,-4(ea)

08000094 <alt_exception_unknown>:
#ifdef NIOS2_HAS_DEBUG_STUB
       /*
        *  Either tell the user now (if there is a debugger attached) or go into
        *  the debug monitor which will loop until a debugger is attached.
        */
        break
 8000094:	003da03a 	break	0
        /* 
         * Restore the saved registers, so that all general purpose registers 
         * have been restored to their state at the time the interrupt occured.
         */

        ldw   r5,  68(sp)
 8000098:	d9401117 	ldw	r5,68(sp)
        ldw   ea,  72(sp)  /* This becomes the PC once eret is executed */
 800009c:	df401217 	ldw	ea,72(sp)
        ldw   ra,   0(sp)
 80000a0:	dfc00017 	ldw	ra,0(sp)

        wrctl estatus, r5
 80000a4:	2801707a 	wrctl	estatus,r5

        ldw   r1,   8(sp)
 80000a8:	d8400217 	ldw	at,8(sp)
        ldw   r2,  12(sp)
 80000ac:	d8800317 	ldw	r2,12(sp)
        ldw   r3,  16(sp)
 80000b0:	d8c00417 	ldw	r3,16(sp)
        ldw   r4,  20(sp)
 80000b4:	d9000517 	ldw	r4,20(sp)
        ldw   r5,  24(sp)
 80000b8:	d9400617 	ldw	r5,24(sp)
        ldw   r6,  28(sp)
 80000bc:	d9800717 	ldw	r6,28(sp)
        ldw   r7,  32(sp)
 80000c0:	d9c00817 	ldw	r7,32(sp)

#if defined(ALT_EXCEPTION_STACK) && defined(ALT_STACK_CHECK)
        ldw   et, %gprel(alt_exception_old_stack_limit)(gp)
#endif

        ldw   r8,  36(sp)
 80000c4:	da000917 	ldw	r8,36(sp)
        ldw   r9,  40(sp)
 80000c8:	da400a17 	ldw	r9,40(sp)
        ldw   r10, 44(sp)
 80000cc:	da800b17 	ldw	r10,44(sp)
        ldw   r11, 48(sp)
 80000d0:	dac00c17 	ldw	r11,48(sp)
        ldw   r12, 52(sp)
 80000d4:	db000d17 	ldw	r12,52(sp)
        ldw   r13, 56(sp)
 80000d8:	db400e17 	ldw	r13,56(sp)
        ldw   r14, 60(sp)
 80000dc:	db800f17 	ldw	r14,60(sp)
        ldw   r15, 64(sp)
 80000e0:	dbc01017 	ldw	r15,64(sp)
        stw   et, %gprel(alt_stack_limit_value)(gp)
        stw   zero, %gprel(alt_exception_old_stack_limit)(gp)
#endif /* ALT_STACK_CHECK */
        ldw   sp,  76(sp)
#else /* ALT_EXCEPTION_STACK disabled */
        addi  sp, sp, 76
 80000e4:	dec01304 	addi	sp,sp,76

        /*
         * Return to the interrupted instruction.
         */

        eret
 80000e8:	ef80083a 	eret

080000ec <alt_irq_handler>:
 * instruction is present if the macro ALT_CI_INTERRUPT_VECTOR defined.
 */

void alt_irq_handler (void) __attribute__ ((section (".exceptions")));
void alt_irq_handler (void)
{
 80000ec:	defff904 	addi	sp,sp,-28
 80000f0:	dfc00615 	stw	ra,24(sp)
 80000f4:	df000515 	stw	fp,20(sp)
 80000f8:	df000504 	addi	fp,sp,20
  
  /*
   * Notify the operating system that we are at interrupt level.
   */ 
  
  ALT_OS_INT_ENTER();
 80000fc:	0001883a 	nop
#ifndef NIOS2_EIC_PRESENT
static ALT_INLINE alt_u32 ALT_ALWAYS_INLINE alt_irq_pending (void)
{
  alt_u32 active;

  NIOS2_READ_IPENDING (active);
 8000100:	0005313a 	rdctl	r2,ipending
 8000104:	e0bffe15 	stw	r2,-8(fp)

  return active;
 8000108:	e0bffe17 	ldw	r2,-8(fp)
   * Consider the case where the high priority interupt is asserted during
   * the interrupt entry sequence for a lower priority interrupt to see why
   * this is the case.
   */

  active = alt_irq_pending ();
 800010c:	e0bffb15 	stw	r2,-20(fp)

  do
  {
    i = 0;
 8000110:	e03ffd15 	stw	zero,-12(fp)
    mask = 1;
 8000114:	00800044 	movi	r2,1
 8000118:	e0bffc15 	stw	r2,-16(fp)
     * called to clear the interrupt condition.
     */

    do
    {
      if (active & mask)
 800011c:	e0fffb17 	ldw	r3,-20(fp)
 8000120:	e0bffc17 	ldw	r2,-16(fp)
 8000124:	1884703a 	and	r2,r3,r2
 8000128:	10001426 	beq	r2,zero,800017c <alt_irq_handler+0x90>
      { 
#ifdef ALT_ENHANCED_INTERRUPT_API_PRESENT
        alt_irq[i].handler(alt_irq[i].context); 
 800012c:	00820074 	movhi	r2,2049
 8000130:	10910f04 	addi	r2,r2,17468
 8000134:	e0fffd17 	ldw	r3,-12(fp)
 8000138:	180690fa 	slli	r3,r3,3
 800013c:	10c5883a 	add	r2,r2,r3
 8000140:	10c00017 	ldw	r3,0(r2)
 8000144:	00820074 	movhi	r2,2049
 8000148:	10910f04 	addi	r2,r2,17468
 800014c:	e13ffd17 	ldw	r4,-12(fp)
 8000150:	200890fa 	slli	r4,r4,3
 8000154:	1105883a 	add	r2,r2,r4
 8000158:	10800104 	addi	r2,r2,4
 800015c:	10800017 	ldw	r2,0(r2)
 8000160:	1009883a 	mov	r4,r2
 8000164:	183ee83a 	callr	r3
#else
        alt_irq[i].handler(alt_irq[i].context, i); 
#endif
        break;
 8000168:	0001883a 	nop
#ifndef NIOS2_EIC_PRESENT
static ALT_INLINE alt_u32 ALT_ALWAYS_INLINE alt_irq_pending (void)
{
  alt_u32 active;

  NIOS2_READ_IPENDING (active);
 800016c:	0005313a 	rdctl	r2,ipending
 8000170:	e0bfff15 	stw	r2,-4(fp)

  return active;
 8000174:	e0bfff17 	ldw	r2,-4(fp)
 8000178:	00000706 	br	8000198 <alt_irq_handler+0xac>
      }
      mask <<= 1;
 800017c:	e0bffc17 	ldw	r2,-16(fp)
 8000180:	1085883a 	add	r2,r2,r2
 8000184:	e0bffc15 	stw	r2,-16(fp)
      i++;
 8000188:	e0bffd17 	ldw	r2,-12(fp)
 800018c:	10800044 	addi	r2,r2,1
 8000190:	e0bffd15 	stw	r2,-12(fp)

    } while (1);
 8000194:	003fe106 	br	800011c <__alt_data_end+0xfc00011c>

    active = alt_irq_pending ();
 8000198:	e0bffb15 	stw	r2,-20(fp)
    
  } while (active);
 800019c:	e0bffb17 	ldw	r2,-20(fp)
 80001a0:	103fdb1e 	bne	r2,zero,8000110 <__alt_data_end+0xfc000110>

  /*
   * Notify the operating system that interrupt processing is complete.
   */ 

  ALT_OS_INT_EXIT();
 80001a4:	0001883a 	nop
}
 80001a8:	e037883a 	mov	sp,fp
 80001ac:	dfc00117 	ldw	ra,4(sp)
 80001b0:	df000017 	ldw	fp,0(sp)
 80001b4:	dec00204 	addi	sp,sp,8
 80001b8:	f800283a 	ret

Disassembly of section .text:

080001bc <_start>:

    /*
     * Now that the caches are initialized, set up the stack pointer and global pointer.
     * The values provided by the linker are assumed to be correctly aligned.
     */
    movhi sp, %hi(__alt_stack_pointer)
 80001bc:	06c30034 	movhi	sp,3072
    ori sp, sp, %lo(__alt_stack_pointer)
 80001c0:	dec00014 	ori	sp,sp,0
    movhi gp, %hi(_gp)
 80001c4:	06820074 	movhi	gp,2049
    ori gp, gp, %lo(_gp)
 80001c8:	d6a92214 	ori	gp,gp,42120
 */
#ifndef ALT_SIM_OPTIMIZE
    /* Log that the BSS is about to be cleared. */
    ALT_LOG_PUTS(alt_log_msg_bss)

    movhi r2, %hi(__bss_start)
 80001cc:	00820074 	movhi	r2,2049
    ori r2, r2, %lo(__bss_start)
 80001d0:	108ff814 	ori	r2,r2,16352

    movhi r3, %hi(__bss_end)
 80001d4:	00c20074 	movhi	r3,2049
    ori r3, r3, %lo(__bss_end)
 80001d8:	18d14f14 	ori	r3,r3,17724

    beq r2, r3, 1f
 80001dc:	10c00326 	beq	r2,r3,80001ec <_start+0x30>

0:
    stw zero, (r2)
 80001e0:	10000015 	stw	zero,0(r2)
    addi r2, r2, 4
 80001e4:	10800104 	addi	r2,r2,4
    bltu r2, r3, 0b
 80001e8:	10fffd36 	bltu	r2,r3,80001e0 <__alt_data_end+0xfc0001e0>
     * section aren't defined until alt_load() has been called).
     */
    mov   et, zero
#endif

    call alt_load
 80001ec:	800dba40 	call	800dba4 <alt_load>

    /* Log that alt_main is about to be called. */
    ALT_LOG_PUTS(alt_log_msg_alt_main)

    /* Call the C entry point. It should never return. */
    call alt_main
 80001f0:	800dd500 	call	800dd50 <alt_main>

080001f4 <alt_after_alt_main>:

    /* Wait in infinite loop in case alt_main does return. */
alt_after_alt_main:
    br alt_after_alt_main
 80001f4:	003fff06 	br	80001f4 <__alt_data_end+0xfc0001f4>

080001f8 <main>:
#include <stdlib.h>

#include "serial.h"


int main() {
 80001f8:	defffc04 	addi	sp,sp,-16
 80001fc:	dfc00315 	stw	ra,12(sp)
 8000200:	df000215 	stw	fp,8(sp)
 8000204:	df000204 	addi	fp,sp,8
	// Draw the number pad
	printf("Starting Program\n");
 8000208:	01020074 	movhi	r4,2049
 800020c:	21018a04 	addi	r4,r4,1576
 8000210:	800230c0 	call	800230c <puts>

	// Initialize Hardware
	Wifi_Init();
 8000214:	80009680 	call	8000968 <Wifi_Init>

	printf("Wifi inititalised\n");
 8000218:	01020074 	movhi	r4,2049
 800021c:	21018f04 	addi	r4,r4,1596
 8000220:	800230c0 	call	800230c <puts>

	int i;
	for(i=0;i<10;i++) {
 8000224:	e03ffe15 	stw	zero,-8(fp)
 8000228:	00000606 	br	8000244 <main+0x4c>
		Wifi_SendCommand(" \r\n");
 800022c:	01020074 	movhi	r4,2049
 8000230:	21019404 	addi	r4,r4,1616
 8000234:	8000bbc0 	call	8000bbc <Wifi_SendCommand>
	Wifi_Init();

	printf("Wifi inititalised\n");

	int i;
	for(i=0;i<10;i++) {
 8000238:	e0bffe17 	ldw	r2,-8(fp)
 800023c:	10800044 	addi	r2,r2,1
 8000240:	e0bffe15 	stw	r2,-8(fp)
 8000244:	e0bffe17 	ldw	r2,-8(fp)
 8000248:	10800290 	cmplti	r2,r2,10
 800024c:	103ff71e 	bne	r2,zero,800022c <__alt_data_end+0xfc00022c>
		Wifi_SendCommand(" \r\n");
	}

	// Send wifi commands
	Wifi_SendCommand("print(\"Hello\")\r\n");
 8000250:	01020074 	movhi	r4,2049
 8000254:	21019504 	addi	r4,r4,1620
 8000258:	8000bbc0 	call	8000bbc <Wifi_SendCommand>
	int bytesread = Wifi_ReadResponse();
 800025c:	80009c80 	call	80009c8 <Wifi_ReadResponse>
 8000260:	e0bfff15 	stw	r2,-4(fp)
	Wifi_CopyBuffer(bytesread);
 8000264:	e13fff17 	ldw	r4,-4(fp)
 8000268:	8000a700 	call	8000a70 <Wifi_CopyBuffer>
	Wifi_PrintResponse();
 800026c:	8000a380 	call	8000a38 <Wifi_PrintResponse>
	// Send wifi commands
	Wifi_SendCommand("print(\"Hello\")\r\n");
 8000270:	01020074 	movhi	r4,2049
 8000274:	21019504 	addi	r4,r4,1620
 8000278:	8000bbc0 	call	8000bbc <Wifi_SendCommand>
	bytesread = Wifi_ReadResponse();
 800027c:	80009c80 	call	80009c8 <Wifi_ReadResponse>
 8000280:	e0bfff15 	stw	r2,-4(fp)
	Wifi_CopyBuffer(bytesread);
 8000284:	e13fff17 	ldw	r4,-4(fp)
 8000288:	8000a700 	call	8000a70 <Wifi_CopyBuffer>
	Wifi_PrintResponse();
 800028c:	8000a380 	call	8000a38 <Wifi_PrintResponse>
	// Send wifi commands
	Wifi_SendCommand("print(\"Hello\")\r\n");
 8000290:	01020074 	movhi	r4,2049
 8000294:	21019504 	addi	r4,r4,1620
 8000298:	8000bbc0 	call	8000bbc <Wifi_SendCommand>
	bytesread = Wifi_ReadResponse();
 800029c:	80009c80 	call	80009c8 <Wifi_ReadResponse>
 80002a0:	e0bfff15 	stw	r2,-4(fp)
	Wifi_CopyBuffer(bytesread);
 80002a4:	e13fff17 	ldw	r4,-4(fp)
 80002a8:	8000a700 	call	8000a70 <Wifi_CopyBuffer>
	Wifi_PrintResponse();
 80002ac:	8000a380 	call	8000a38 <Wifi_PrintResponse>

	// Send wifi commands
	Wifi_SendCommand("dofile(\"system.lua\")\r\n");
 80002b0:	01020074 	movhi	r4,2049
 80002b4:	21019a04 	addi	r4,r4,1640
 80002b8:	8000bbc0 	call	8000bbc <Wifi_SendCommand>
	bytesread = Wifi_ReadResponse();
 80002bc:	80009c80 	call	80009c8 <Wifi_ReadResponse>
 80002c0:	e0bfff15 	stw	r2,-4(fp)
	Wifi_CopyBuffer(bytesread);
 80002c4:	e13fff17 	ldw	r4,-4(fp)
 80002c8:	8000a700 	call	8000a70 <Wifi_CopyBuffer>
	Wifi_PrintResponse();
 80002cc:	8000a380 	call	8000a38 <Wifi_PrintResponse>

	Wifi_SendCommand("check_wifi()\r\n");
 80002d0:	01020074 	movhi	r4,2049
 80002d4:	2101a004 	addi	r4,r4,1664
 80002d8:	8000bbc0 	call	8000bbc <Wifi_SendCommand>
	Wifi_CopyBuffer(bytesread);
 80002dc:	e13fff17 	ldw	r4,-4(fp)
 80002e0:	8000a700 	call	8000a70 <Wifi_CopyBuffer>
	Wifi_PrintResponse();
 80002e4:	8000a380 	call	8000a38 <Wifi_PrintResponse>

	return 0;
 80002e8:	0005883a 	mov	r2,zero
}
 80002ec:	e037883a 	mov	sp,fp
 80002f0:	dfc00117 	ldw	ra,4(sp)
 80002f4:	df000017 	ldw	fp,0(sp)
 80002f8:	dec00204 	addi	sp,sp,8
 80002fc:	f800283a 	ret

08000300 <TS_Init>:

/*****************************************************************************
**  START OF TOUCHSCREEN
*****************************************************************************/
void TS_Init(void)
{
 8000300:	defffe04 	addi	sp,sp,-8
 8000304:	dfc00115 	stw	ra,4(sp)
 8000308:	df000015 	stw	fp,0(sp)
 800030c:	d839883a 	mov	fp,sp
	// Reset
	TouchScreen_Control = 0x03;
 8000310:	00a10034 	movhi	r2,33792
 8000314:	10808c04 	addi	r2,r2,560
 8000318:	00c000c4 	movi	r3,3
 800031c:	10c00005 	stb	r3,0(r2)

	// set up 6850 Control Register to utilise a divide by 16 clock,
	// set RTS low, use 8 bits of data, no parity, 1 stop bit,
	// transmitter interrupt disabled
	TouchScreen_Control = 0x15;
 8000320:	00a10034 	movhi	r2,33792
 8000324:	10808c04 	addi	r2,r2,560
 8000328:	00c00544 	movi	r3,21
 800032c:	10c00005 	stb	r3,0(r2)

	// set 9600 Baud
	TouchScreen_Baud = 0x07;
 8000330:	00a10034 	movhi	r2,33792
 8000334:	10808d04 	addi	r2,r2,564
 8000338:	00c001c4 	movi	r3,7
 800033c:	10c00005 	stb	r3,0(r2)

	// send touchscreen controller an "enable touch" command
	TS_EnableTouch();
 8000340:	80003940 	call	8000394 <TS_EnableTouch>
}
 8000344:	e037883a 	mov	sp,fp
 8000348:	dfc00117 	ldw	ra,4(sp)
 800034c:	df000017 	ldw	fp,0(sp)
 8000350:	dec00204 	addi	sp,sp,8
 8000354:	f800283a 	ret

08000358 <TS_DisableTouch>:

void TS_DisableTouch( void )
{
 8000358:	defffe04 	addi	sp,sp,-8
 800035c:	dfc00115 	stw	ra,4(sp)
 8000360:	df000015 	stw	fp,0(sp)
 8000364:	d839883a 	mov	fp,sp
	// send touchscreen controller a "disable touch" command
	TS_WriteTx(0x55);
 8000368:	01001544 	movi	r4,85
 800036c:	800064c0 	call	800064c <TS_WriteTx>
	TS_WriteTx(0x01);
 8000370:	01000044 	movi	r4,1
 8000374:	800064c0 	call	800064c <TS_WriteTx>
	TS_WriteTx(0x13);
 8000378:	010004c4 	movi	r4,19
 800037c:	800064c0 	call	800064c <TS_WriteTx>
}
 8000380:	e037883a 	mov	sp,fp
 8000384:	dfc00117 	ldw	ra,4(sp)
 8000388:	df000017 	ldw	fp,0(sp)
 800038c:	dec00204 	addi	sp,sp,8
 8000390:	f800283a 	ret

08000394 <TS_EnableTouch>:

void TS_EnableTouch( void )
{
 8000394:	defffe04 	addi	sp,sp,-8
 8000398:	dfc00115 	stw	ra,4(sp)
 800039c:	df000015 	stw	fp,0(sp)
 80003a0:	d839883a 	mov	fp,sp
	// send touchscreen controller an "enable touch" command
	TS_WriteTx(0x55);
 80003a4:	01001544 	movi	r4,85
 80003a8:	800064c0 	call	800064c <TS_WriteTx>
	TS_WriteTx(0x01);
 80003ac:	01000044 	movi	r4,1
 80003b0:	800064c0 	call	800064c <TS_WriteTx>
	TS_WriteTx(0x12);
 80003b4:	01000484 	movi	r4,18
 80003b8:	800064c0 	call	800064c <TS_WriteTx>
}
 80003bc:	e037883a 	mov	sp,fp
 80003c0:	dfc00117 	ldw	ra,4(sp)
 80003c4:	df000017 	ldw	fp,0(sp)
 80003c8:	dec00204 	addi	sp,sp,8
 80003cc:	f800283a 	ret

080003d0 <TS_WaitForTouch>:


void TS_WaitForTouch()
{
 80003d0:	defffe04 	addi	sp,sp,-8
 80003d4:	dfc00115 	stw	ra,4(sp)
 80003d8:	df000015 	stw	fp,0(sp)
 80003dc:	d839883a 	mov	fp,sp
	while(TS_ReadRx() != (char)0x81);
 80003e0:	0001883a 	nop
 80003e4:	80006000 	call	8000600 <TS_ReadRx>
 80003e8:	10803fcc 	andi	r2,r2,255
 80003ec:	1080201c 	xori	r2,r2,128
 80003f0:	10bfe004 	addi	r2,r2,-128
 80003f4:	10bfe058 	cmpnei	r2,r2,-127
 80003f8:	103ffa1e 	bne	r2,zero,80003e4 <__alt_data_end+0xfc0003e4>
}
 80003fc:	e037883a 	mov	sp,fp
 8000400:	dfc00117 	ldw	ra,4(sp)
 8000404:	df000017 	ldw	fp,0(sp)
 8000408:	dec00204 	addi	sp,sp,8
 800040c:	f800283a 	ret

08000410 <TS_WaitForRelease>:

void TS_WaitForRelease()
{
 8000410:	defffe04 	addi	sp,sp,-8
 8000414:	dfc00115 	stw	ra,4(sp)
 8000418:	df000015 	stw	fp,0(sp)
 800041c:	d839883a 	mov	fp,sp
	while(TS_ReadRx() != (char)0x80);
 8000420:	0001883a 	nop
 8000424:	80006000 	call	8000600 <TS_ReadRx>
 8000428:	10803fcc 	andi	r2,r2,255
 800042c:	1080201c 	xori	r2,r2,128
 8000430:	10bfe004 	addi	r2,r2,-128
 8000434:	10bfe018 	cmpnei	r2,r2,-128
 8000438:	103ffa1e 	bne	r2,zero,8000424 <__alt_data_end+0xfc000424>
}
 800043c:	e037883a 	mov	sp,fp
 8000440:	dfc00117 	ldw	ra,4(sp)
 8000444:	df000017 	ldw	fp,0(sp)
 8000448:	dec00204 	addi	sp,sp,8
 800044c:	f800283a 	ret

08000450 <TS_GetPress>:


Point TS_GetPress(void)
{
 8000450:	defff804 	addi	sp,sp,-32
 8000454:	dfc00715 	stw	ra,28(sp)
 8000458:	df000615 	stw	fp,24(sp)
 800045c:	df000604 	addi	fp,sp,24
	u_int x_cord_upper;

	u_int y_cord_lower;
	u_int y_cord_upper;

	x_cord_lower = TS_ReadRx();
 8000460:	80006000 	call	8000600 <TS_ReadRx>
 8000464:	10803fcc 	andi	r2,r2,255
 8000468:	1080201c 	xori	r2,r2,128
 800046c:	10bfe004 	addi	r2,r2,-128
 8000470:	e0bffa15 	stw	r2,-24(fp)
	x_cord_upper = TS_ReadRx();
 8000474:	80006000 	call	8000600 <TS_ReadRx>
 8000478:	10803fcc 	andi	r2,r2,255
 800047c:	1080201c 	xori	r2,r2,128
 8000480:	10bfe004 	addi	r2,r2,-128
 8000484:	e0bffb15 	stw	r2,-20(fp)
	y_cord_lower = TS_ReadRx();
 8000488:	80006000 	call	8000600 <TS_ReadRx>
 800048c:	10803fcc 	andi	r2,r2,255
 8000490:	1080201c 	xori	r2,r2,128
 8000494:	10bfe004 	addi	r2,r2,-128
 8000498:	e0bffc15 	stw	r2,-16(fp)
	y_cord_upper = TS_ReadRx();
 800049c:	80006000 	call	8000600 <TS_ReadRx>
 80004a0:	10803fcc 	andi	r2,r2,255
 80004a4:	1080201c 	xori	r2,r2,128
 80004a8:	10bfe004 	addi	r2,r2,-128
 80004ac:	e0bffd15 	stw	r2,-12(fp)

	p1.x = (double)((x_cord_upper << 7) | x_cord_lower)/4095.0 * 800;
 80004b0:	e0bffb17 	ldw	r2,-20(fp)
 80004b4:	100691fa 	slli	r3,r2,7
 80004b8:	e0bffa17 	ldw	r2,-24(fp)
 80004bc:	1884b03a 	or	r2,r3,r2
 80004c0:	1009883a 	mov	r4,r2
 80004c4:	8001f700 	call	8001f70 <__floatunsidf>
 80004c8:	100b883a 	mov	r5,r2
 80004cc:	180d883a 	mov	r6,r3
 80004d0:	2809883a 	mov	r4,r5
 80004d4:	300b883a 	mov	r5,r6
 80004d8:	000d883a 	mov	r6,zero
 80004dc:	01d02c34 	movhi	r7,16560
 80004e0:	39ff8004 	addi	r7,r7,-512
 80004e4:	8000cfc0 	call	8000cfc <__divdf3>
 80004e8:	1009883a 	mov	r4,r2
 80004ec:	180b883a 	mov	r5,r3
 80004f0:	2005883a 	mov	r2,r4
 80004f4:	2807883a 	mov	r3,r5
 80004f8:	1009883a 	mov	r4,r2
 80004fc:	180b883a 	mov	r5,r3
 8000500:	000d883a 	mov	r6,zero
 8000504:	01d02274 	movhi	r7,16521
 8000508:	800167c0 	call	800167c <__muldf3>
 800050c:	1009883a 	mov	r4,r2
 8000510:	180b883a 	mov	r5,r3
 8000514:	2005883a 	mov	r2,r4
 8000518:	2807883a 	mov	r3,r5
 800051c:	1009883a 	mov	r4,r2
 8000520:	180b883a 	mov	r5,r3
 8000524:	8001ee80 	call	8001ee8 <__fixdfsi>
 8000528:	e0bffe15 	stw	r2,-8(fp)
	p1.y = (double)((y_cord_upper << 7) | y_cord_lower)/4095.0 * 450;
 800052c:	e0bffd17 	ldw	r2,-12(fp)
 8000530:	100691fa 	slli	r3,r2,7
 8000534:	e0bffc17 	ldw	r2,-16(fp)
 8000538:	1884b03a 	or	r2,r3,r2
 800053c:	1009883a 	mov	r4,r2
 8000540:	8001f700 	call	8001f70 <__floatunsidf>
 8000544:	100b883a 	mov	r5,r2
 8000548:	180d883a 	mov	r6,r3
 800054c:	2809883a 	mov	r4,r5
 8000550:	300b883a 	mov	r5,r6
 8000554:	000d883a 	mov	r6,zero
 8000558:	01d02c34 	movhi	r7,16560
 800055c:	39ff8004 	addi	r7,r7,-512
 8000560:	8000cfc0 	call	8000cfc <__divdf3>
 8000564:	1009883a 	mov	r4,r2
 8000568:	180b883a 	mov	r5,r3
 800056c:	2005883a 	mov	r2,r4
 8000570:	2807883a 	mov	r3,r5
 8000574:	1009883a 	mov	r4,r2
 8000578:	180b883a 	mov	r5,r3
 800057c:	000d883a 	mov	r6,zero
 8000580:	01d01f34 	movhi	r7,16508
 8000584:	39c80004 	addi	r7,r7,8192
 8000588:	800167c0 	call	800167c <__muldf3>
 800058c:	1009883a 	mov	r4,r2
 8000590:	180b883a 	mov	r5,r3
 8000594:	2005883a 	mov	r2,r4
 8000598:	2807883a 	mov	r3,r5
 800059c:	1009883a 	mov	r4,r2
 80005a0:	180b883a 	mov	r5,r3
 80005a4:	8001ee80 	call	8001ee8 <__fixdfsi>
 80005a8:	e0bfff15 	stw	r2,-4(fp)

	/*
	 * Change it to -1 so that we can check later if the touch values are valid
	 */
	if(p1.x > 800 || p1.y > 450) {
 80005ac:	e0bffe17 	ldw	r2,-8(fp)
 80005b0:	1080c848 	cmpgei	r2,r2,801
 80005b4:	1000031e 	bne	r2,zero,80005c4 <TS_GetPress+0x174>
 80005b8:	e0bfff17 	ldw	r2,-4(fp)
 80005bc:	108070d0 	cmplti	r2,r2,451
 80005c0:	1000041e 	bne	r2,zero,80005d4 <TS_GetPress+0x184>
		p1.x = -1;
 80005c4:	00bfffc4 	movi	r2,-1
 80005c8:	e0bffe15 	stw	r2,-8(fp)
		p1.y = -1;
 80005cc:	00bfffc4 	movi	r2,-1
 80005d0:	e0bfff15 	stw	r2,-4(fp)
	}

	return p1;
 80005d4:	e0bffe17 	ldw	r2,-8(fp)
 80005d8:	e0ffff17 	ldw	r3,-4(fp)
 80005dc:	1009883a 	mov	r4,r2
 80005e0:	180b883a 	mov	r5,r3
}
 80005e4:	2005883a 	mov	r2,r4
 80005e8:	2807883a 	mov	r3,r5
 80005ec:	e037883a 	mov	sp,fp
 80005f0:	dfc00117 	ldw	ra,4(sp)
 80005f4:	df000017 	ldw	fp,0(sp)
 80005f8:	dec00204 	addi	sp,sp,8
 80005fc:	f800283a 	ret

08000600 <TS_ReadRx>:


char TS_ReadRx(void) {
 8000600:	defffe04 	addi	sp,sp,-8
 8000604:	df000115 	stw	fp,4(sp)
 8000608:	df000104 	addi	fp,sp,4
	// poll Rx bit in 6850 status register. Wait for it to become '1'
	while((TouchScreen_Status & 0x01) != 0x01) {}
 800060c:	0001883a 	nop
 8000610:	00a10034 	movhi	r2,33792
 8000614:	10808c04 	addi	r2,r2,560
 8000618:	10800003 	ldbu	r2,0(r2)
 800061c:	10803fcc 	andi	r2,r2,255
 8000620:	1080004c 	andi	r2,r2,1
 8000624:	103ffa26 	beq	r2,zero,8000610 <__alt_data_end+0xfc000610>
	char val = TouchScreen_RxData;
 8000628:	00a10034 	movhi	r2,33792
 800062c:	10808c84 	addi	r2,r2,562
 8000630:	10800003 	ldbu	r2,0(r2)
 8000634:	e0bfff05 	stb	r2,-4(fp)
	return val;
 8000638:	e0bfff03 	ldbu	r2,-4(fp)
}
 800063c:	e037883a 	mov	sp,fp
 8000640:	df000017 	ldw	fp,0(sp)
 8000644:	dec00104 	addi	sp,sp,4
 8000648:	f800283a 	ret

0800064c <TS_WriteTx>:

void TS_WriteTx(char val) {
 800064c:	defffe04 	addi	sp,sp,-8
 8000650:	df000115 	stw	fp,4(sp)
 8000654:	df000104 	addi	fp,sp,4
 8000658:	2005883a 	mov	r2,r4
 800065c:	e0bfff05 	stb	r2,-4(fp)
	// poll tx bit in 6850 status register. Wait for it to become '2'
	while((TouchScreen_Status & 0x02) != 0x02) {}
 8000660:	0001883a 	nop
 8000664:	00a10034 	movhi	r2,33792
 8000668:	10808c04 	addi	r2,r2,560
 800066c:	10800003 	ldbu	r2,0(r2)
 8000670:	10803fcc 	andi	r2,r2,255
 8000674:	1080008c 	andi	r2,r2,2
 8000678:	103ffa26 	beq	r2,zero,8000664 <__alt_data_end+0xfc000664>
	TouchScreen_TxData = val;
 800067c:	00a10034 	movhi	r2,33792
 8000680:	10808c84 	addi	r2,r2,562
 8000684:	e0ffff03 	ldbu	r3,-4(fp)
 8000688:	10c00005 	stb	r3,0(r2)
}
 800068c:	e037883a 	mov	sp,fp
 8000690:	df000017 	ldw	fp,0(sp)
 8000694:	dec00104 	addi	sp,sp,4
 8000698:	f800283a 	ret

0800069c <TS_GetRelease>:


Point TS_GetRelease(void)
{
 800069c:	defff804 	addi	sp,sp,-32
 80006a0:	dfc00715 	stw	ra,28(sp)
 80006a4:	df000615 	stw	fp,24(sp)
 80006a8:	df000604 	addi	fp,sp,24
	u_int x_cord_upper;

	u_int y_cord_lower;
	u_int y_cord_upper;

	x_cord_lower = TS_ReadRx();
 80006ac:	80006000 	call	8000600 <TS_ReadRx>
 80006b0:	10803fcc 	andi	r2,r2,255
 80006b4:	1080201c 	xori	r2,r2,128
 80006b8:	10bfe004 	addi	r2,r2,-128
 80006bc:	e0bffa15 	stw	r2,-24(fp)
	x_cord_upper = TS_ReadRx();
 80006c0:	80006000 	call	8000600 <TS_ReadRx>
 80006c4:	10803fcc 	andi	r2,r2,255
 80006c8:	1080201c 	xori	r2,r2,128
 80006cc:	10bfe004 	addi	r2,r2,-128
 80006d0:	e0bffb15 	stw	r2,-20(fp)
	y_cord_lower = TS_ReadRx();
 80006d4:	80006000 	call	8000600 <TS_ReadRx>
 80006d8:	10803fcc 	andi	r2,r2,255
 80006dc:	1080201c 	xori	r2,r2,128
 80006e0:	10bfe004 	addi	r2,r2,-128
 80006e4:	e0bffc15 	stw	r2,-16(fp)
	y_cord_upper = TS_ReadRx();
 80006e8:	80006000 	call	8000600 <TS_ReadRx>
 80006ec:	10803fcc 	andi	r2,r2,255
 80006f0:	1080201c 	xori	r2,r2,128
 80006f4:	10bfe004 	addi	r2,r2,-128
 80006f8:	e0bffd15 	stw	r2,-12(fp)

	p1.x = (double)((x_cord_upper << 7) | x_cord_lower)/4095.0 * 800;
 80006fc:	e0bffb17 	ldw	r2,-20(fp)
 8000700:	100691fa 	slli	r3,r2,7
 8000704:	e0bffa17 	ldw	r2,-24(fp)
 8000708:	1884b03a 	or	r2,r3,r2
 800070c:	1009883a 	mov	r4,r2
 8000710:	8001f700 	call	8001f70 <__floatunsidf>
 8000714:	100b883a 	mov	r5,r2
 8000718:	180d883a 	mov	r6,r3
 800071c:	2809883a 	mov	r4,r5
 8000720:	300b883a 	mov	r5,r6
 8000724:	000d883a 	mov	r6,zero
 8000728:	01d02c34 	movhi	r7,16560
 800072c:	39ff8004 	addi	r7,r7,-512
 8000730:	8000cfc0 	call	8000cfc <__divdf3>
 8000734:	1009883a 	mov	r4,r2
 8000738:	180b883a 	mov	r5,r3
 800073c:	2005883a 	mov	r2,r4
 8000740:	2807883a 	mov	r3,r5
 8000744:	1009883a 	mov	r4,r2
 8000748:	180b883a 	mov	r5,r3
 800074c:	000d883a 	mov	r6,zero
 8000750:	01d02274 	movhi	r7,16521
 8000754:	800167c0 	call	800167c <__muldf3>
 8000758:	1009883a 	mov	r4,r2
 800075c:	180b883a 	mov	r5,r3
 8000760:	2005883a 	mov	r2,r4
 8000764:	2807883a 	mov	r3,r5
 8000768:	1009883a 	mov	r4,r2
 800076c:	180b883a 	mov	r5,r3
 8000770:	8001ee80 	call	8001ee8 <__fixdfsi>
 8000774:	e0bffe15 	stw	r2,-8(fp)
	p1.y = (double)((y_cord_upper << 7) | y_cord_lower)/4095.0 * 450;
 8000778:	e0bffd17 	ldw	r2,-12(fp)
 800077c:	100691fa 	slli	r3,r2,7
 8000780:	e0bffc17 	ldw	r2,-16(fp)
 8000784:	1884b03a 	or	r2,r3,r2
 8000788:	1009883a 	mov	r4,r2
 800078c:	8001f700 	call	8001f70 <__floatunsidf>
 8000790:	100b883a 	mov	r5,r2
 8000794:	180d883a 	mov	r6,r3
 8000798:	2809883a 	mov	r4,r5
 800079c:	300b883a 	mov	r5,r6
 80007a0:	000d883a 	mov	r6,zero
 80007a4:	01d02c34 	movhi	r7,16560
 80007a8:	39ff8004 	addi	r7,r7,-512
 80007ac:	8000cfc0 	call	8000cfc <__divdf3>
 80007b0:	1009883a 	mov	r4,r2
 80007b4:	180b883a 	mov	r5,r3
 80007b8:	2005883a 	mov	r2,r4
 80007bc:	2807883a 	mov	r3,r5
 80007c0:	1009883a 	mov	r4,r2
 80007c4:	180b883a 	mov	r5,r3
 80007c8:	000d883a 	mov	r6,zero
 80007cc:	01d01f34 	movhi	r7,16508
 80007d0:	39c80004 	addi	r7,r7,8192
 80007d4:	800167c0 	call	800167c <__muldf3>
 80007d8:	1009883a 	mov	r4,r2
 80007dc:	180b883a 	mov	r5,r3
 80007e0:	2005883a 	mov	r2,r4
 80007e4:	2807883a 	mov	r3,r5
 80007e8:	1009883a 	mov	r4,r2
 80007ec:	180b883a 	mov	r5,r3
 80007f0:	8001ee80 	call	8001ee8 <__fixdfsi>
 80007f4:	e0bfff15 	stw	r2,-4(fp)

	/*
	 * Change it to -1 so that we can check later if the touch values are valid
	 */
	if(p1.x > 800 || p1.y > 450) {
 80007f8:	e0bffe17 	ldw	r2,-8(fp)
 80007fc:	1080c848 	cmpgei	r2,r2,801
 8000800:	1000031e 	bne	r2,zero,8000810 <TS_GetRelease+0x174>
 8000804:	e0bfff17 	ldw	r2,-4(fp)
 8000808:	108070d0 	cmplti	r2,r2,451
 800080c:	1000041e 	bne	r2,zero,8000820 <TS_GetRelease+0x184>
		p1.x = -1;
 8000810:	00bfffc4 	movi	r2,-1
 8000814:	e0bffe15 	stw	r2,-8(fp)
		p1.y = -1;
 8000818:	00bfffc4 	movi	r2,-1
 800081c:	e0bfff15 	stw	r2,-4(fp)
	}
	// calibrated correctly so that it maps to a pixel on screen
	return p1;
 8000820:	e0bffe17 	ldw	r2,-8(fp)
 8000824:	e0ffff17 	ldw	r3,-4(fp)
 8000828:	1009883a 	mov	r4,r2
 800082c:	180b883a 	mov	r5,r3
}
 8000830:	2005883a 	mov	r2,r4
 8000834:	2807883a 	mov	r3,r5
 8000838:	e037883a 	mov	sp,fp
 800083c:	dfc00117 	ldw	ra,4(sp)
 8000840:	df000017 	ldw	fp,0(sp)
 8000844:	dec00204 	addi	sp,sp,8
 8000848:	f800283a 	ret

0800084c <Init_RS232>:


/*****************************************************************************
**  START OF RS232
*****************************************************************************/
void Init_RS232(void) {
 800084c:	deffff04 	addi	sp,sp,-4
 8000850:	df000015 	stw	fp,0(sp)
 8000854:	d839883a 	mov	fp,sp
	// Reset
	RS232_Control = 0x03;
 8000858:	00a10034 	movhi	r2,33792
 800085c:	10808004 	addi	r2,r2,512
 8000860:	00c000c4 	movi	r3,3
 8000864:	10c00005 	stb	r3,0(r2)

	// set up 6850 Control Register to utilise a divide by 16 clock,
	// set RTS low, use 8 bits of data, no parity, 1 stop bit,
	// transmitter interrupt disabled
	RS232_Control = 0x15;
 8000868:	00a10034 	movhi	r2,33792
 800086c:	10808004 	addi	r2,r2,512
 8000870:	00c00544 	movi	r3,21
 8000874:	10c00005 	stb	r3,0(r2)

	// program baud rate generator to use 115k baud
	RS232_Baud = BAUD_115;
 8000878:	00a10034 	movhi	r2,33792
 800087c:	10808104 	addi	r2,r2,516
 8000880:	00c00044 	movi	r3,1
 8000884:	10c00005 	stb	r3,0(r2)

}
 8000888:	e037883a 	mov	sp,fp
 800088c:	df000017 	ldw	fp,0(sp)
 8000890:	dec00104 	addi	sp,sp,4
 8000894:	f800283a 	ret

08000898 <putcharRS232>:

int putcharRS232(int c) {
 8000898:	defffe04 	addi	sp,sp,-8
 800089c:	df000115 	stw	fp,4(sp)
 80008a0:	df000104 	addi	fp,sp,4
 80008a4:	e13fff15 	stw	r4,-4(fp)
	// poll Tx bit in 6850 status register. Wait for it to become '1'
	while((RS232_Status & 0x02) != 0x02) {}
 80008a8:	0001883a 	nop
 80008ac:	00a10034 	movhi	r2,33792
 80008b0:	10808004 	addi	r2,r2,512
 80008b4:	10800003 	ldbu	r2,0(r2)
 80008b8:	10803fcc 	andi	r2,r2,255
 80008bc:	1080008c 	andi	r2,r2,2
 80008c0:	103ffa26 	beq	r2,zero,80008ac <__alt_data_end+0xfc0008ac>
	// write 'c' to the 6850 TxData register to output the character

	RS232_TxData = c;
 80008c4:	00a10034 	movhi	r2,33792
 80008c8:	10808084 	addi	r2,r2,514
 80008cc:	e0ffff17 	ldw	r3,-4(fp)
 80008d0:	10c00005 	stb	r3,0(r2)

	return c;
 80008d4:	e0bfff17 	ldw	r2,-4(fp)
}
 80008d8:	e037883a 	mov	sp,fp
 80008dc:	df000017 	ldw	fp,0(sp)
 80008e0:	dec00104 	addi	sp,sp,4
 80008e4:	f800283a 	ret

080008e8 <getcharRS232>:

int getcharRS232( void ) {
 80008e8:	deffff04 	addi	sp,sp,-4
 80008ec:	df000015 	stw	fp,0(sp)
 80008f0:	d839883a 	mov	fp,sp
	// poll Rx bit in 6850 status register. Wait for it to become '1'
	while((RS232_Status & 0x01) != 0x01) {}
 80008f4:	0001883a 	nop
 80008f8:	00a10034 	movhi	r2,33792
 80008fc:	10808004 	addi	r2,r2,512
 8000900:	10800003 	ldbu	r2,0(r2)
 8000904:	10803fcc 	andi	r2,r2,255
 8000908:	1080004c 	andi	r2,r2,1
 800090c:	103ffa26 	beq	r2,zero,80008f8 <__alt_data_end+0xfc0008f8>
	// read received character from 6850 RxData register
	return RS232_RxData;
 8000910:	00a10034 	movhi	r2,33792
 8000914:	10808084 	addi	r2,r2,514
 8000918:	10800003 	ldbu	r2,0(r2)
 800091c:	10803fcc 	andi	r2,r2,255
}
 8000920:	e037883a 	mov	sp,fp
 8000924:	df000017 	ldw	fp,0(sp)
 8000928:	dec00104 	addi	sp,sp,4
 800092c:	f800283a 	ret

08000930 <RS232TestForReceivedData>:

int RS232TestForReceivedData(void) {
 8000930:	deffff04 	addi	sp,sp,-4
 8000934:	df000015 	stw	fp,0(sp)
 8000938:	d839883a 	mov	fp,sp
	// Test Rx bit in 6850 serial comms chip status register
	// if RX bit is set, return TRUE, otherwise return FALSE
	return ((RS232_Status & 0x1) == 0x01);
 800093c:	00a10034 	movhi	r2,33792
 8000940:	10808004 	addi	r2,r2,512
 8000944:	10800003 	ldbu	r2,0(r2)
 8000948:	10803fcc 	andi	r2,r2,255
 800094c:	1080004c 	andi	r2,r2,1
 8000950:	1004c03a 	cmpne	r2,r2,zero
 8000954:	10803fcc 	andi	r2,r2,255
}
 8000958:	e037883a 	mov	sp,fp
 800095c:	df000017 	ldw	fp,0(sp)
 8000960:	dec00104 	addi	sp,sp,4
 8000964:	f800283a 	ret

08000968 <Wifi_Init>:
unsigned char cbuf[BUF_SIZE];

/*****************************************************************************
** Initialise wifi controller
*****************************************************************************/
void Wifi_Init(void) {
 8000968:	defffe04 	addi	sp,sp,-8
 800096c:	dfc00115 	stw	ra,4(sp)
 8000970:	df000015 	stw	fp,0(sp)
 8000974:	d839883a 	mov	fp,sp
	// Reset
	Wifi_Control = 0x03;
 8000978:	00a10034 	movhi	r2,33792
 800097c:	10809004 	addi	r2,r2,576
 8000980:	00c000c4 	movi	r3,3
 8000984:	10c00005 	stb	r3,0(r2)

	// set up 6850 Control Register to utilise a divide by 16 clock,
	// set RTS low, use 8 bits of data, no parity, 1 stop bit,
	// transmitter interrupt disabled
	Wifi_Control = 0x55;
 8000988:	00a10034 	movhi	r2,33792
 800098c:	10809004 	addi	r2,r2,576
 8000990:	00c01544 	movi	r3,85
 8000994:	10c00005 	stb	r3,0(r2)

	// set 115200 Baud
	Wifi_Baud = 0x1;
 8000998:	00a10034 	movhi	r2,33792
 800099c:	10809104 	addi	r2,r2,580
 80009a0:	00c00044 	movi	r3,1
 80009a4:	10c00005 	stb	r3,0(r2)

	usleep(100000);
 80009a8:	010000b4 	movhi	r4,2
 80009ac:	2121a804 	addi	r4,r4,-31072
 80009b0:	800e08c0 	call	800e08c <usleep>
}
 80009b4:	e037883a 	mov	sp,fp
 80009b8:	dfc00117 	ldw	ra,4(sp)
 80009bc:	df000017 	ldw	fp,0(sp)
 80009c0:	dec00204 	addi	sp,sp,8
 80009c4:	f800283a 	ret

080009c8 <Wifi_ReadResponse>:


/*****************************************************************************
* Read wifi response into buf for n bytes
*****************************************************************************/
int Wifi_ReadResponse() {
 80009c8:	defffc04 	addi	sp,sp,-16
 80009cc:	dfc00315 	stw	ra,12(sp)
 80009d0:	df000215 	stw	fp,8(sp)
 80009d4:	df000204 	addi	fp,sp,8
	int i;
	char data;
	for(i=0;i<BUF_SIZE;i++) {
 80009d8:	e03ffe15 	stw	zero,-8(fp)
 80009dc:	00000d06 	br	8000a14 <Wifi_ReadResponse+0x4c>
		data = Wifi_ReadRx();
 80009e0:	8000c640 	call	8000c64 <Wifi_ReadRx>
 80009e4:	e0bfff05 	stb	r2,-4(fp)
		if(isascii(data)) {
 80009e8:	e0bfff07 	ldb	r2,-4(fp)
 80009ec:	10000616 	blt	r2,zero,8000a08 <Wifi_ReadResponse+0x40>
			rbuf[i] = data;
 80009f0:	e0ffff03 	ldbu	r3,-4(fp)
 80009f4:	00820074 	movhi	r2,2049
 80009f8:	10900f04 	addi	r2,r2,16444
 80009fc:	e13ffe17 	ldw	r4,-8(fp)
 8000a00:	1105883a 	add	r2,r2,r4
 8000a04:	10c00005 	stb	r3,0(r2)
* Read wifi response into buf for n bytes
*****************************************************************************/
int Wifi_ReadResponse() {
	int i;
	char data;
	for(i=0;i<BUF_SIZE;i++) {
 8000a08:	e0bffe17 	ldw	r2,-8(fp)
 8000a0c:	10800044 	addi	r2,r2,1
 8000a10:	e0bffe15 	stw	r2,-8(fp)
 8000a14:	e0bffe17 	ldw	r2,-8(fp)
 8000a18:	10808010 	cmplti	r2,r2,512
 8000a1c:	103ff01e 	bne	r2,zero,80009e0 <__alt_data_end+0xfc0009e0>
		data = Wifi_ReadRx();
		if(isascii(data)) {
			rbuf[i] = data;
		}
	}
	return i;
 8000a20:	e0bffe17 	ldw	r2,-8(fp)
}
 8000a24:	e037883a 	mov	sp,fp
 8000a28:	dfc00117 	ldw	ra,4(sp)
 8000a2c:	df000017 	ldw	fp,0(sp)
 8000a30:	dec00204 	addi	sp,sp,8
 8000a34:	f800283a 	ret

08000a38 <Wifi_PrintResponse>:

/*****************************************************************************
* Wifi print response
*****************************************************************************/
int Wifi_PrintResponse() {
 8000a38:	defffe04 	addi	sp,sp,-8
 8000a3c:	dfc00115 	stw	ra,4(sp)
 8000a40:	df000015 	stw	fp,0(sp)
 8000a44:	d839883a 	mov	fp,sp
	printf("%s",rbuf);
 8000a48:	01020074 	movhi	r4,2049
 8000a4c:	2101a404 	addi	r4,r4,1680
 8000a50:	01420074 	movhi	r5,2049
 8000a54:	29500f04 	addi	r5,r5,16444
 8000a58:	80021f80 	call	80021f8 <printf>
}
 8000a5c:	e037883a 	mov	sp,fp
 8000a60:	dfc00117 	ldw	ra,4(sp)
 8000a64:	df000017 	ldw	fp,0(sp)
 8000a68:	dec00204 	addi	sp,sp,8
 8000a6c:	f800283a 	ret

08000a70 <Wifi_CopyBuffer>:

/*****************************************************************************
* Copy over nbytes from rbuf to to cbuf
* *****************************************************************************/
void Wifi_CopyBuffer(int nbytes) {
 8000a70:	defffc04 	addi	sp,sp,-16
 8000a74:	dfc00315 	stw	ra,12(sp)
 8000a78:	df000215 	stw	fp,8(sp)
 8000a7c:	df000204 	addi	fp,sp,8
 8000a80:	e13fff15 	stw	r4,-4(fp)
	// Clear the original dest
	Wifi_ClearBuffer(cbuf);
 8000a84:	01020074 	movhi	r4,2049
 8000a88:	21108f04 	addi	r4,r4,16956
 8000a8c:	8000aec0 	call	8000aec <Wifi_ClearBuffer>
	int i;
	for(i=0;i<nbytes;i++) {
 8000a90:	e03ffe15 	stw	zero,-8(fp)
 8000a94:	00000d06 	br	8000acc <Wifi_CopyBuffer+0x5c>
		cbuf[i] = rbuf[i];
 8000a98:	00820074 	movhi	r2,2049
 8000a9c:	10900f04 	addi	r2,r2,16444
 8000aa0:	e0fffe17 	ldw	r3,-8(fp)
 8000aa4:	10c5883a 	add	r2,r2,r3
 8000aa8:	10c00003 	ldbu	r3,0(r2)
 8000aac:	00820074 	movhi	r2,2049
 8000ab0:	10908f04 	addi	r2,r2,16956
 8000ab4:	e13ffe17 	ldw	r4,-8(fp)
 8000ab8:	1105883a 	add	r2,r2,r4
 8000abc:	10c00005 	stb	r3,0(r2)
* *****************************************************************************/
void Wifi_CopyBuffer(int nbytes) {
	// Clear the original dest
	Wifi_ClearBuffer(cbuf);
	int i;
	for(i=0;i<nbytes;i++) {
 8000ac0:	e0bffe17 	ldw	r2,-8(fp)
 8000ac4:	10800044 	addi	r2,r2,1
 8000ac8:	e0bffe15 	stw	r2,-8(fp)
 8000acc:	e0fffe17 	ldw	r3,-8(fp)
 8000ad0:	e0bfff17 	ldw	r2,-4(fp)
 8000ad4:	18bff016 	blt	r3,r2,8000a98 <__alt_data_end+0xfc000a98>
		cbuf[i] = rbuf[i];
	}
}
 8000ad8:	e037883a 	mov	sp,fp
 8000adc:	dfc00117 	ldw	ra,4(sp)
 8000ae0:	df000017 	ldw	fp,0(sp)
 8000ae4:	dec00204 	addi	sp,sp,8
 8000ae8:	f800283a 	ret

08000aec <Wifi_ClearBuffer>:

/*****************************************************************************
* Clear buffers BUF_SIZE
******************************************************************************/
void Wifi_ClearBuffer(unsigned char* buf) {
 8000aec:	defffd04 	addi	sp,sp,-12
 8000af0:	df000215 	stw	fp,8(sp)
 8000af4:	df000204 	addi	fp,sp,8
 8000af8:	e13fff15 	stw	r4,-4(fp)
	int i;
	for(i=0;i<BUF_SIZE;i++) {
 8000afc:	e03ffe15 	stw	zero,-8(fp)
 8000b00:	00000706 	br	8000b20 <Wifi_ClearBuffer+0x34>
		buf[i] = '\0';
 8000b04:	e0bffe17 	ldw	r2,-8(fp)
 8000b08:	e0ffff17 	ldw	r3,-4(fp)
 8000b0c:	1885883a 	add	r2,r3,r2
 8000b10:	10000005 	stb	zero,0(r2)
/*****************************************************************************
* Clear buffers BUF_SIZE
******************************************************************************/
void Wifi_ClearBuffer(unsigned char* buf) {
	int i;
	for(i=0;i<BUF_SIZE;i++) {
 8000b14:	e0bffe17 	ldw	r2,-8(fp)
 8000b18:	10800044 	addi	r2,r2,1
 8000b1c:	e0bffe15 	stw	r2,-8(fp)
 8000b20:	e0bffe17 	ldw	r2,-8(fp)
 8000b24:	10808010 	cmplti	r2,r2,512
 8000b28:	103ff61e 	bne	r2,zero,8000b04 <__alt_data_end+0xfc000b04>
		buf[i] = '\0';
	}
}
 8000b2c:	e037883a 	mov	sp,fp
 8000b30:	df000017 	ldw	fp,0(sp)
 8000b34:	dec00104 	addi	sp,sp,4
 8000b38:	f800283a 	ret

08000b3c <Wifi_WaitReady>:

/*****************************************************************************
* Wait until ready for command
*****************************************************************************/
void Wifi_WaitReady(void) {
 8000b3c:	defffd04 	addi	sp,sp,-12
 8000b40:	dfc00215 	stw	ra,8(sp)
 8000b44:	df000115 	stw	fp,4(sp)
 8000b48:	df000104 	addi	fp,sp,4
	char val = Wifi_ReadRx();
 8000b4c:	8000c640 	call	8000c64 <Wifi_ReadRx>
 8000b50:	e0bfff05 	stb	r2,-4(fp)
	if(isascii(val)) {
 8000b54:	e0bfff07 	ldb	r2,-4(fp)
 8000b58:	10000316 	blt	r2,zero,8000b68 <Wifi_WaitReady+0x2c>
		printf("%c",val);
 8000b5c:	e0bfff07 	ldb	r2,-4(fp)
 8000b60:	1009883a 	mov	r4,r2
 8000b64:	800223c0 	call	800223c <putchar>
	}
	// keep reading the incoming data
	while(val != '>') {
 8000b68:	00000706 	br	8000b88 <Wifi_WaitReady+0x4c>
		val = Wifi_ReadRx();
 8000b6c:	8000c640 	call	8000c64 <Wifi_ReadRx>
 8000b70:	e0bfff05 	stb	r2,-4(fp)
		if(isascii(val)) {
 8000b74:	e0bfff07 	ldb	r2,-4(fp)
 8000b78:	10000316 	blt	r2,zero,8000b88 <Wifi_WaitReady+0x4c>
			printf("%c",val);
 8000b7c:	e0bfff07 	ldb	r2,-4(fp)
 8000b80:	1009883a 	mov	r4,r2
 8000b84:	800223c0 	call	800223c <putchar>
	char val = Wifi_ReadRx();
	if(isascii(val)) {
		printf("%c",val);
	}
	// keep reading the incoming data
	while(val != '>') {
 8000b88:	e0bfff07 	ldb	r2,-4(fp)
 8000b8c:	10800f98 	cmpnei	r2,r2,62
 8000b90:	103ff61e 	bne	r2,zero,8000b6c <__alt_data_end+0xfc000b6c>
		val = Wifi_ReadRx();
		if(isascii(val)) {
			printf("%c",val);
		}
	}
	Wifi_SendCommand("\r\n");
 8000b94:	01020074 	movhi	r4,2049
 8000b98:	2101a504 	addi	r4,r4,1684
 8000b9c:	8000bbc0 	call	8000bbc <Wifi_SendCommand>
	printf('\n');
 8000ba0:	01000284 	movi	r4,10
 8000ba4:	80021f80 	call	80021f8 <printf>
}
 8000ba8:	e037883a 	mov	sp,fp
 8000bac:	dfc00117 	ldw	ra,4(sp)
 8000bb0:	df000017 	ldw	fp,0(sp)
 8000bb4:	dec00204 	addi	sp,sp,8
 8000bb8:	f800283a 	ret

08000bbc <Wifi_SendCommand>:


/*****************************************************************************
* Send a command should end in \r\n
*****************************************************************************/
void Wifi_SendCommand(const char * command) {
 8000bbc:	defffc04 	addi	sp,sp,-16
 8000bc0:	dfc00315 	stw	ra,12(sp)
 8000bc4:	df000215 	stw	fp,8(sp)
 8000bc8:	df000204 	addi	fp,sp,8
 8000bcc:	e13fff15 	stw	r4,-4(fp)
	int cur_1=0;
 8000bd0:	e03ffe15 	stw	zero,-8(fp)
	while(command[cur_1] != '\n') {
 8000bd4:	00000c06 	br	8000c08 <Wifi_SendCommand+0x4c>
		Wifi_WriteTx(command[cur_1]);
 8000bd8:	e0bffe17 	ldw	r2,-8(fp)
 8000bdc:	e0ffff17 	ldw	r3,-4(fp)
 8000be0:	1885883a 	add	r2,r3,r2
 8000be4:	10800003 	ldbu	r2,0(r2)
 8000be8:	10803fcc 	andi	r2,r2,255
 8000bec:	1080201c 	xori	r2,r2,128
 8000bf0:	10bfe004 	addi	r2,r2,-128
 8000bf4:	1009883a 	mov	r4,r2
 8000bf8:	8000cac0 	call	8000cac <Wifi_WriteTx>
		cur_1++;
 8000bfc:	e0bffe17 	ldw	r2,-8(fp)
 8000c00:	10800044 	addi	r2,r2,1
 8000c04:	e0bffe15 	stw	r2,-8(fp)
/*****************************************************************************
* Send a command should end in \r\n
*****************************************************************************/
void Wifi_SendCommand(const char * command) {
	int cur_1=0;
	while(command[cur_1] != '\n') {
 8000c08:	e0bffe17 	ldw	r2,-8(fp)
 8000c0c:	e0ffff17 	ldw	r3,-4(fp)
 8000c10:	1885883a 	add	r2,r3,r2
 8000c14:	10800003 	ldbu	r2,0(r2)
 8000c18:	10803fcc 	andi	r2,r2,255
 8000c1c:	1080201c 	xori	r2,r2,128
 8000c20:	10bfe004 	addi	r2,r2,-128
 8000c24:	10800298 	cmpnei	r2,r2,10
 8000c28:	103feb1e 	bne	r2,zero,8000bd8 <__alt_data_end+0xfc000bd8>
		Wifi_WriteTx(command[cur_1]);
		cur_1++;
	}
	Wifi_WriteTx(command[cur_1]);
 8000c2c:	e0bffe17 	ldw	r2,-8(fp)
 8000c30:	e0ffff17 	ldw	r3,-4(fp)
 8000c34:	1885883a 	add	r2,r3,r2
 8000c38:	10800003 	ldbu	r2,0(r2)
 8000c3c:	10803fcc 	andi	r2,r2,255
 8000c40:	1080201c 	xori	r2,r2,128
 8000c44:	10bfe004 	addi	r2,r2,-128
 8000c48:	1009883a 	mov	r4,r2
 8000c4c:	8000cac0 	call	8000cac <Wifi_WriteTx>
}
 8000c50:	e037883a 	mov	sp,fp
 8000c54:	dfc00117 	ldw	ra,4(sp)
 8000c58:	df000017 	ldw	fp,0(sp)
 8000c5c:	dec00204 	addi	sp,sp,8
 8000c60:	f800283a 	ret

08000c64 <Wifi_ReadRx>:


/*****************************************************************************
* Read Rx
*****************************************************************************/
int Wifi_ReadRx(void) {
 8000c64:	deffff04 	addi	sp,sp,-4
 8000c68:	df000015 	stw	fp,0(sp)
 8000c6c:	d839883a 	mov	fp,sp
	// poll Rx bit in 6850 status register. Wait for it to become '1'
	while((Wifi_Status & 0x01) != 0x01) {}
 8000c70:	0001883a 	nop
 8000c74:	00a10034 	movhi	r2,33792
 8000c78:	10809004 	addi	r2,r2,576
 8000c7c:	10800003 	ldbu	r2,0(r2)
 8000c80:	10803fcc 	andi	r2,r2,255
 8000c84:	1080004c 	andi	r2,r2,1
 8000c88:	103ffa26 	beq	r2,zero,8000c74 <__alt_data_end+0xfc000c74>
	return Wifi_RxData;
 8000c8c:	00a10034 	movhi	r2,33792
 8000c90:	10809084 	addi	r2,r2,578
 8000c94:	10800003 	ldbu	r2,0(r2)
 8000c98:	10803fcc 	andi	r2,r2,255
}
 8000c9c:	e037883a 	mov	sp,fp
 8000ca0:	df000017 	ldw	fp,0(sp)
 8000ca4:	dec00104 	addi	sp,sp,4
 8000ca8:	f800283a 	ret

08000cac <Wifi_WriteTx>:


/*****************************************************************************
* Write Tx
*****************************************************************************/
void Wifi_WriteTx(char val) {
 8000cac:	defffe04 	addi	sp,sp,-8
 8000cb0:	df000115 	stw	fp,4(sp)
 8000cb4:	df000104 	addi	fp,sp,4
 8000cb8:	2005883a 	mov	r2,r4
 8000cbc:	e0bfff05 	stb	r2,-4(fp)
	// poll tx bit in 6850 status register. Wait for it to become '2'
	while((Wifi_Status & 0x02) != 0x02) {}
 8000cc0:	0001883a 	nop
 8000cc4:	00a10034 	movhi	r2,33792
 8000cc8:	10809004 	addi	r2,r2,576
 8000ccc:	10800003 	ldbu	r2,0(r2)
 8000cd0:	10803fcc 	andi	r2,r2,255
 8000cd4:	1080008c 	andi	r2,r2,2
 8000cd8:	103ffa26 	beq	r2,zero,8000cc4 <__alt_data_end+0xfc000cc4>
	Wifi_TxData = val;
 8000cdc:	00a10034 	movhi	r2,33792
 8000ce0:	10809084 	addi	r2,r2,578
 8000ce4:	e0ffff03 	ldbu	r3,-4(fp)
 8000ce8:	10c00005 	stb	r3,0(r2)
}
 8000cec:	e037883a 	mov	sp,fp
 8000cf0:	df000017 	ldw	fp,0(sp)
 8000cf4:	dec00104 	addi	sp,sp,4
 8000cf8:	f800283a 	ret

08000cfc <__divdf3>:
 8000cfc:	defff004 	addi	sp,sp,-64
 8000d00:	dc800815 	stw	r18,32(sp)
 8000d04:	2824d53a 	srli	r18,r5,20
 8000d08:	dd800c15 	stw	r22,48(sp)
 8000d0c:	282cd7fa 	srli	r22,r5,31
 8000d10:	dc000615 	stw	r16,24(sp)
 8000d14:	04000434 	movhi	r16,16
 8000d18:	df000e15 	stw	fp,56(sp)
 8000d1c:	dd000a15 	stw	r20,40(sp)
 8000d20:	dcc00915 	stw	r19,36(sp)
 8000d24:	dc400715 	stw	r17,28(sp)
 8000d28:	843fffc4 	addi	r16,r16,-1
 8000d2c:	dfc00f15 	stw	ra,60(sp)
 8000d30:	ddc00d15 	stw	r23,52(sp)
 8000d34:	dd400b15 	stw	r21,44(sp)
 8000d38:	9481ffcc 	andi	r18,r18,2047
 8000d3c:	2029883a 	mov	r20,r4
 8000d40:	2027883a 	mov	r19,r4
 8000d44:	2c22703a 	and	r17,r5,r16
 8000d48:	b7003fcc 	andi	fp,r22,255
 8000d4c:	90005e26 	beq	r18,zero,8000ec8 <__divdf3+0x1cc>
 8000d50:	0081ffc4 	movi	r2,2047
 8000d54:	90803526 	beq	r18,r2,8000e2c <__divdf3+0x130>
 8000d58:	8c000434 	orhi	r16,r17,16
 8000d5c:	2004d77a 	srli	r2,r4,29
 8000d60:	802090fa 	slli	r16,r16,3
 8000d64:	202690fa 	slli	r19,r4,3
 8000d68:	94bf0044 	addi	r18,r18,-1023
 8000d6c:	80a2b03a 	or	r17,r16,r2
 8000d70:	0029883a 	mov	r20,zero
 8000d74:	0011883a 	mov	r8,zero
 8000d78:	380ad53a 	srli	r5,r7,20
 8000d7c:	382ed7fa 	srli	r23,r7,31
 8000d80:	04000434 	movhi	r16,16
 8000d84:	843fffc4 	addi	r16,r16,-1
 8000d88:	2941ffcc 	andi	r5,r5,2047
 8000d8c:	302b883a 	mov	r21,r6
 8000d90:	3c20703a 	and	r16,r7,r16
 8000d94:	ba403fcc 	andi	r9,r23,255
 8000d98:	28006726 	beq	r5,zero,8000f38 <__divdf3+0x23c>
 8000d9c:	0081ffc4 	movi	r2,2047
 8000da0:	28805f26 	beq	r5,r2,8000f20 <__divdf3+0x224>
 8000da4:	84000434 	orhi	r16,r16,16
 8000da8:	3004d77a 	srli	r2,r6,29
 8000dac:	802090fa 	slli	r16,r16,3
 8000db0:	302a90fa 	slli	r21,r6,3
 8000db4:	297f0044 	addi	r5,r5,-1023
 8000db8:	80a0b03a 	or	r16,r16,r2
 8000dbc:	000f883a 	mov	r7,zero
 8000dc0:	3d06b03a 	or	r3,r7,r20
 8000dc4:	180690ba 	slli	r3,r3,2
 8000dc8:	00820034 	movhi	r2,2048
 8000dcc:	10837b04 	addi	r2,r2,3564
 8000dd0:	1885883a 	add	r2,r3,r2
 8000dd4:	10800017 	ldw	r2,0(r2)
 8000dd8:	b5c8f03a 	xor	r4,r22,r23
 8000ddc:	200d883a 	mov	r6,r4
 8000de0:	25003fcc 	andi	r20,r4,255
 8000de4:	9165c83a 	sub	r18,r18,r5
 8000de8:	1000683a 	jmp	r2
 8000dec:	08001034 	orhi	zero,at,64
 8000df0:	08000e64 	muli	zero,at,57
 8000df4:	08000ff8 	rdprs	zero,at,63
 8000df8:	08000e48 	cmpgei	zero,at,57
 8000dfc:	08000ff8 	rdprs	zero,at,63
 8000e00:	08000fcc 	andi	zero,at,63
 8000e04:	08000ff8 	rdprs	zero,at,63
 8000e08:	08000e48 	cmpgei	zero,at,57
 8000e0c:	08000e64 	muli	zero,at,57
 8000e10:	08000e64 	muli	zero,at,57
 8000e14:	08000fcc 	andi	zero,at,63
 8000e18:	08000e48 	cmpgei	zero,at,57
 8000e1c:	08000e58 	cmpnei	zero,at,57
 8000e20:	08000e58 	cmpnei	zero,at,57
 8000e24:	08000e58 	cmpnei	zero,at,57
 8000e28:	08001008 	cmpgei	zero,at,64
 8000e2c:	8904b03a 	or	r2,r17,r4
 8000e30:	1000631e 	bne	r2,zero,8000fc0 <__divdf3+0x2c4>
 8000e34:	05000204 	movi	r20,8
 8000e38:	0023883a 	mov	r17,zero
 8000e3c:	0027883a 	mov	r19,zero
 8000e40:	02000084 	movi	r8,2
 8000e44:	003fcc06 	br	8000d78 <__alt_data_end+0xfc000d78>
 8000e48:	8023883a 	mov	r17,r16
 8000e4c:	a827883a 	mov	r19,r21
 8000e50:	4839883a 	mov	fp,r9
 8000e54:	3811883a 	mov	r8,r7
 8000e58:	00800084 	movi	r2,2
 8000e5c:	4081531e 	bne	r8,r2,80013ac <__divdf3+0x6b0>
 8000e60:	e029883a 	mov	r20,fp
 8000e64:	a180004c 	andi	r6,r20,1
 8000e68:	0201ffc4 	movi	r8,2047
 8000e6c:	000b883a 	mov	r5,zero
 8000e70:	0027883a 	mov	r19,zero
 8000e74:	4010953a 	slli	r8,r8,20
 8000e78:	30c03fcc 	andi	r3,r6,255
 8000e7c:	04000434 	movhi	r16,16
 8000e80:	180697fa 	slli	r3,r3,31
 8000e84:	843fffc4 	addi	r16,r16,-1
 8000e88:	2c20703a 	and	r16,r5,r16
 8000e8c:	8220b03a 	or	r16,r16,r8
 8000e90:	80c6b03a 	or	r3,r16,r3
 8000e94:	9805883a 	mov	r2,r19
 8000e98:	dfc00f17 	ldw	ra,60(sp)
 8000e9c:	df000e17 	ldw	fp,56(sp)
 8000ea0:	ddc00d17 	ldw	r23,52(sp)
 8000ea4:	dd800c17 	ldw	r22,48(sp)
 8000ea8:	dd400b17 	ldw	r21,44(sp)
 8000eac:	dd000a17 	ldw	r20,40(sp)
 8000eb0:	dcc00917 	ldw	r19,36(sp)
 8000eb4:	dc800817 	ldw	r18,32(sp)
 8000eb8:	dc400717 	ldw	r17,28(sp)
 8000ebc:	dc000617 	ldw	r16,24(sp)
 8000ec0:	dec01004 	addi	sp,sp,64
 8000ec4:	f800283a 	ret
 8000ec8:	8904b03a 	or	r2,r17,r4
 8000ecc:	10003726 	beq	r2,zero,8000fac <__divdf3+0x2b0>
 8000ed0:	88014d26 	beq	r17,zero,8001408 <__divdf3+0x70c>
 8000ed4:	8809883a 	mov	r4,r17
 8000ed8:	d9800215 	stw	r6,8(sp)
 8000edc:	d9c00515 	stw	r7,20(sp)
 8000ee0:	80020140 	call	8002014 <__clzsi2>
 8000ee4:	d9800217 	ldw	r6,8(sp)
 8000ee8:	d9c00517 	ldw	r7,20(sp)
 8000eec:	1007883a 	mov	r3,r2
 8000ef0:	01000a04 	movi	r4,40
 8000ef4:	1cfffe04 	addi	r19,r3,-8
 8000ef8:	20c9c83a 	sub	r4,r4,r3
 8000efc:	8cca983a 	sll	r5,r17,r19
 8000f00:	a108d83a 	srl	r4,r20,r4
 8000f04:	a4e6983a 	sll	r19,r20,r19
 8000f08:	2162b03a 	or	r17,r4,r5
 8000f0c:	04bf0344 	movi	r18,-1011
 8000f10:	90e5c83a 	sub	r18,r18,r3
 8000f14:	0029883a 	mov	r20,zero
 8000f18:	0011883a 	mov	r8,zero
 8000f1c:	003f9606 	br	8000d78 <__alt_data_end+0xfc000d78>
 8000f20:	8184b03a 	or	r2,r16,r6
 8000f24:	10001f1e 	bne	r2,zero,8000fa4 <__divdf3+0x2a8>
 8000f28:	0021883a 	mov	r16,zero
 8000f2c:	002b883a 	mov	r21,zero
 8000f30:	01c00084 	movi	r7,2
 8000f34:	003fa206 	br	8000dc0 <__alt_data_end+0xfc000dc0>
 8000f38:	8184b03a 	or	r2,r16,r6
 8000f3c:	10001526 	beq	r2,zero,8000f94 <__divdf3+0x298>
 8000f40:	80013d26 	beq	r16,zero,8001438 <__divdf3+0x73c>
 8000f44:	8009883a 	mov	r4,r16
 8000f48:	d9800215 	stw	r6,8(sp)
 8000f4c:	da000315 	stw	r8,12(sp)
 8000f50:	da400415 	stw	r9,16(sp)
 8000f54:	80020140 	call	8002014 <__clzsi2>
 8000f58:	d9800217 	ldw	r6,8(sp)
 8000f5c:	da000317 	ldw	r8,12(sp)
 8000f60:	da400417 	ldw	r9,16(sp)
 8000f64:	1007883a 	mov	r3,r2
 8000f68:	01000a04 	movi	r4,40
 8000f6c:	1d7ffe04 	addi	r21,r3,-8
 8000f70:	20c9c83a 	sub	r4,r4,r3
 8000f74:	8560983a 	sll	r16,r16,r21
 8000f78:	3108d83a 	srl	r4,r6,r4
 8000f7c:	356a983a 	sll	r21,r6,r21
 8000f80:	2420b03a 	or	r16,r4,r16
 8000f84:	017f0344 	movi	r5,-1011
 8000f88:	28cbc83a 	sub	r5,r5,r3
 8000f8c:	000f883a 	mov	r7,zero
 8000f90:	003f8b06 	br	8000dc0 <__alt_data_end+0xfc000dc0>
 8000f94:	0021883a 	mov	r16,zero
 8000f98:	002b883a 	mov	r21,zero
 8000f9c:	01c00044 	movi	r7,1
 8000fa0:	003f8706 	br	8000dc0 <__alt_data_end+0xfc000dc0>
 8000fa4:	01c000c4 	movi	r7,3
 8000fa8:	003f8506 	br	8000dc0 <__alt_data_end+0xfc000dc0>
 8000fac:	05000104 	movi	r20,4
 8000fb0:	0023883a 	mov	r17,zero
 8000fb4:	0027883a 	mov	r19,zero
 8000fb8:	02000044 	movi	r8,1
 8000fbc:	003f6e06 	br	8000d78 <__alt_data_end+0xfc000d78>
 8000fc0:	05000304 	movi	r20,12
 8000fc4:	020000c4 	movi	r8,3
 8000fc8:	003f6b06 	br	8000d78 <__alt_data_end+0xfc000d78>
 8000fcc:	01400434 	movhi	r5,16
 8000fd0:	000d883a 	mov	r6,zero
 8000fd4:	297fffc4 	addi	r5,r5,-1
 8000fd8:	04ffffc4 	movi	r19,-1
 8000fdc:	0201ffc4 	movi	r8,2047
 8000fe0:	003fa406 	br	8000e74 <__alt_data_end+0xfc000e74>
 8000fe4:	043f0084 	movi	r16,-1022
 8000fe8:	84a1c83a 	sub	r16,r16,r18
 8000fec:	00800e04 	movi	r2,56
 8000ff0:	14014d0e 	bge	r2,r16,8001528 <__divdf3+0x82c>
 8000ff4:	a180004c 	andi	r6,r20,1
 8000ff8:	0011883a 	mov	r8,zero
 8000ffc:	000b883a 	mov	r5,zero
 8001000:	0027883a 	mov	r19,zero
 8001004:	003f9b06 	br	8000e74 <__alt_data_end+0xfc000e74>
 8001008:	8880022c 	andhi	r2,r17,8
 800100c:	1000f026 	beq	r2,zero,80013d0 <__divdf3+0x6d4>
 8001010:	8080022c 	andhi	r2,r16,8
 8001014:	1000ee1e 	bne	r2,zero,80013d0 <__divdf3+0x6d4>
 8001018:	00800434 	movhi	r2,16
 800101c:	81400234 	orhi	r5,r16,8
 8001020:	10bfffc4 	addi	r2,r2,-1
 8001024:	b80d883a 	mov	r6,r23
 8001028:	288a703a 	and	r5,r5,r2
 800102c:	a827883a 	mov	r19,r21
 8001030:	003fea06 	br	8000fdc <__alt_data_end+0xfc000fdc>
 8001034:	84411c36 	bltu	r16,r17,80014a8 <__divdf3+0x7ac>
 8001038:	8c011a26 	beq	r17,r16,80014a4 <__divdf3+0x7a8>
 800103c:	94bfffc4 	addi	r18,r18,-1
 8001040:	dcc00015 	stw	r19,0(sp)
 8001044:	8811883a 	mov	r8,r17
 8001048:	002d883a 	mov	r22,zero
 800104c:	a80cd63a 	srli	r6,r21,24
 8001050:	8020923a 	slli	r16,r16,8
 8001054:	a82a923a 	slli	r21,r21,8
 8001058:	4009883a 	mov	r4,r8
 800105c:	342eb03a 	or	r23,r6,r16
 8001060:	dd400115 	stw	r21,4(sp)
 8001064:	b82ad43a 	srli	r21,r23,16
 8001068:	da000315 	stw	r8,12(sp)
 800106c:	bcffffcc 	andi	r19,r23,65535
 8001070:	a80b883a 	mov	r5,r21
 8001074:	80021940 	call	8002194 <__udivsi3>
 8001078:	1009883a 	mov	r4,r2
 800107c:	980b883a 	mov	r5,r19
 8001080:	1023883a 	mov	r17,r2
 8001084:	80021a40 	call	80021a4 <__mulsi3>
 8001088:	da000317 	ldw	r8,12(sp)
 800108c:	a80b883a 	mov	r5,r21
 8001090:	1039883a 	mov	fp,r2
 8001094:	4009883a 	mov	r4,r8
 8001098:	800219c0 	call	800219c <__umodsi3>
 800109c:	d8c00017 	ldw	r3,0(sp)
 80010a0:	1004943a 	slli	r2,r2,16
 80010a4:	1810d43a 	srli	r8,r3,16
 80010a8:	120eb03a 	or	r7,r2,r8
 80010ac:	3f00062e 	bgeu	r7,fp,80010c8 <__divdf3+0x3cc>
 80010b0:	3dcf883a 	add	r7,r7,r23
 80010b4:	88bfffc4 	addi	r2,r17,-1
 80010b8:	3dc10a36 	bltu	r7,r23,80014e4 <__divdf3+0x7e8>
 80010bc:	3f01092e 	bgeu	r7,fp,80014e4 <__divdf3+0x7e8>
 80010c0:	8c7fff84 	addi	r17,r17,-2
 80010c4:	3dcf883a 	add	r7,r7,r23
 80010c8:	3f39c83a 	sub	fp,r7,fp
 80010cc:	e009883a 	mov	r4,fp
 80010d0:	a80b883a 	mov	r5,r21
 80010d4:	80021940 	call	8002194 <__udivsi3>
 80010d8:	1009883a 	mov	r4,r2
 80010dc:	980b883a 	mov	r5,r19
 80010e0:	1021883a 	mov	r16,r2
 80010e4:	80021a40 	call	80021a4 <__mulsi3>
 80010e8:	e009883a 	mov	r4,fp
 80010ec:	a80b883a 	mov	r5,r21
 80010f0:	d8800315 	stw	r2,12(sp)
 80010f4:	800219c0 	call	800219c <__umodsi3>
 80010f8:	d9000017 	ldw	r4,0(sp)
 80010fc:	1004943a 	slli	r2,r2,16
 8001100:	da000317 	ldw	r8,12(sp)
 8001104:	20ffffcc 	andi	r3,r4,65535
 8001108:	10ceb03a 	or	r7,r2,r3
 800110c:	3a00062e 	bgeu	r7,r8,8001128 <__divdf3+0x42c>
 8001110:	3dcf883a 	add	r7,r7,r23
 8001114:	80bfffc4 	addi	r2,r16,-1
 8001118:	3dc0f036 	bltu	r7,r23,80014dc <__divdf3+0x7e0>
 800111c:	3a00ef2e 	bgeu	r7,r8,80014dc <__divdf3+0x7e0>
 8001120:	843fff84 	addi	r16,r16,-2
 8001124:	3dcf883a 	add	r7,r7,r23
 8001128:	d8c00117 	ldw	r3,4(sp)
 800112c:	8822943a 	slli	r17,r17,16
 8001130:	3a0fc83a 	sub	r7,r7,r8
 8001134:	1806d43a 	srli	r3,r3,16
 8001138:	8462b03a 	or	r17,r16,r17
 800113c:	8affffcc 	andi	r11,r17,65535
 8001140:	d8c00015 	stw	r3,0(sp)
 8001144:	d8c00117 	ldw	r3,4(sp)
 8001148:	8820d43a 	srli	r16,r17,16
 800114c:	5809883a 	mov	r4,r11
 8001150:	1f3fffcc 	andi	fp,r3,65535
 8001154:	e00b883a 	mov	r5,fp
 8001158:	d9c00515 	stw	r7,20(sp)
 800115c:	dac00215 	stw	r11,8(sp)
 8001160:	80021a40 	call	80021a4 <__mulsi3>
 8001164:	8009883a 	mov	r4,r16
 8001168:	e00b883a 	mov	r5,fp
 800116c:	d8800415 	stw	r2,16(sp)
 8001170:	80021a40 	call	80021a4 <__mulsi3>
 8001174:	d9400017 	ldw	r5,0(sp)
 8001178:	8009883a 	mov	r4,r16
 800117c:	d8800315 	stw	r2,12(sp)
 8001180:	80021a40 	call	80021a4 <__mulsi3>
 8001184:	dac00217 	ldw	r11,8(sp)
 8001188:	d9400017 	ldw	r5,0(sp)
 800118c:	d8800215 	stw	r2,8(sp)
 8001190:	5809883a 	mov	r4,r11
 8001194:	80021a40 	call	80021a4 <__mulsi3>
 8001198:	da400417 	ldw	r9,16(sp)
 800119c:	da800317 	ldw	r10,12(sp)
 80011a0:	d9c00517 	ldw	r7,20(sp)
 80011a4:	480ad43a 	srli	r5,r9,16
 80011a8:	5085883a 	add	r2,r10,r2
 80011ac:	db000217 	ldw	r12,8(sp)
 80011b0:	1151883a 	add	r8,r2,r5
 80011b4:	4280022e 	bgeu	r8,r10,80011c0 <__divdf3+0x4c4>
 80011b8:	00800074 	movhi	r2,1
 80011bc:	6099883a 	add	r12,r12,r2
 80011c0:	400ad43a 	srli	r5,r8,16
 80011c4:	4010943a 	slli	r8,r8,16
 80011c8:	4c3fffcc 	andi	r16,r9,65535
 80011cc:	6149883a 	add	r4,r12,r5
 80011d0:	4411883a 	add	r8,r8,r16
 80011d4:	3900a736 	bltu	r7,r4,8001474 <__divdf3+0x778>
 80011d8:	3900c426 	beq	r7,r4,80014ec <__divdf3+0x7f0>
 80011dc:	3909c83a 	sub	r4,r7,r4
 80011e0:	b221c83a 	sub	r16,r22,r8
 80011e4:	b42d803a 	cmpltu	r22,r22,r16
 80011e8:	25adc83a 	sub	r22,r4,r22
 80011ec:	b5c0c626 	beq	r22,r23,8001508 <__divdf3+0x80c>
 80011f0:	b009883a 	mov	r4,r22
 80011f4:	a80b883a 	mov	r5,r21
 80011f8:	80021940 	call	8002194 <__udivsi3>
 80011fc:	1009883a 	mov	r4,r2
 8001200:	980b883a 	mov	r5,r19
 8001204:	d8800315 	stw	r2,12(sp)
 8001208:	80021a40 	call	80021a4 <__mulsi3>
 800120c:	a80b883a 	mov	r5,r21
 8001210:	b009883a 	mov	r4,r22
 8001214:	d8800415 	stw	r2,16(sp)
 8001218:	800219c0 	call	800219c <__umodsi3>
 800121c:	1004943a 	slli	r2,r2,16
 8001220:	800ed43a 	srli	r7,r16,16
 8001224:	da400417 	ldw	r9,16(sp)
 8001228:	da000317 	ldw	r8,12(sp)
 800122c:	11cab03a 	or	r5,r2,r7
 8001230:	2a40062e 	bgeu	r5,r9,800124c <__divdf3+0x550>
 8001234:	2dcb883a 	add	r5,r5,r23
 8001238:	40bfffc4 	addi	r2,r8,-1
 800123c:	2dc0b436 	bltu	r5,r23,8001510 <__divdf3+0x814>
 8001240:	2a40b32e 	bgeu	r5,r9,8001510 <__divdf3+0x814>
 8001244:	423fff84 	addi	r8,r8,-2
 8001248:	2dcb883a 	add	r5,r5,r23
 800124c:	2a6dc83a 	sub	r22,r5,r9
 8001250:	b009883a 	mov	r4,r22
 8001254:	a80b883a 	mov	r5,r21
 8001258:	da000315 	stw	r8,12(sp)
 800125c:	80021940 	call	8002194 <__udivsi3>
 8001260:	980b883a 	mov	r5,r19
 8001264:	1009883a 	mov	r4,r2
 8001268:	d8800415 	stw	r2,16(sp)
 800126c:	80021a40 	call	80021a4 <__mulsi3>
 8001270:	b009883a 	mov	r4,r22
 8001274:	a80b883a 	mov	r5,r21
 8001278:	1027883a 	mov	r19,r2
 800127c:	800219c0 	call	800219c <__umodsi3>
 8001280:	1004943a 	slli	r2,r2,16
 8001284:	843fffcc 	andi	r16,r16,65535
 8001288:	da000317 	ldw	r8,12(sp)
 800128c:	140eb03a 	or	r7,r2,r16
 8001290:	da400417 	ldw	r9,16(sp)
 8001294:	3cc0062e 	bgeu	r7,r19,80012b0 <__divdf3+0x5b4>
 8001298:	3dcf883a 	add	r7,r7,r23
 800129c:	48bfffc4 	addi	r2,r9,-1
 80012a0:	3dc09d36 	bltu	r7,r23,8001518 <__divdf3+0x81c>
 80012a4:	3cc09c2e 	bgeu	r7,r19,8001518 <__divdf3+0x81c>
 80012a8:	4a7fff84 	addi	r9,r9,-2
 80012ac:	3dcf883a 	add	r7,r7,r23
 80012b0:	4010943a 	slli	r8,r8,16
 80012b4:	3cebc83a 	sub	r21,r7,r19
 80012b8:	e00b883a 	mov	r5,fp
 80012bc:	4a26b03a 	or	r19,r9,r8
 80012c0:	99ffffcc 	andi	r7,r19,65535
 80012c4:	9820d43a 	srli	r16,r19,16
 80012c8:	3809883a 	mov	r4,r7
 80012cc:	d9c00515 	stw	r7,20(sp)
 80012d0:	80021a40 	call	80021a4 <__mulsi3>
 80012d4:	8009883a 	mov	r4,r16
 80012d8:	e00b883a 	mov	r5,fp
 80012dc:	102d883a 	mov	r22,r2
 80012e0:	80021a40 	call	80021a4 <__mulsi3>
 80012e4:	d9400017 	ldw	r5,0(sp)
 80012e8:	8009883a 	mov	r4,r16
 80012ec:	1039883a 	mov	fp,r2
 80012f0:	80021a40 	call	80021a4 <__mulsi3>
 80012f4:	d9c00517 	ldw	r7,20(sp)
 80012f8:	d9400017 	ldw	r5,0(sp)
 80012fc:	1021883a 	mov	r16,r2
 8001300:	3809883a 	mov	r4,r7
 8001304:	80021a40 	call	80021a4 <__mulsi3>
 8001308:	b008d43a 	srli	r4,r22,16
 800130c:	e085883a 	add	r2,fp,r2
 8001310:	1109883a 	add	r4,r2,r4
 8001314:	2700022e 	bgeu	r4,fp,8001320 <__divdf3+0x624>
 8001318:	00800074 	movhi	r2,1
 800131c:	80a1883a 	add	r16,r16,r2
 8001320:	200ad43a 	srli	r5,r4,16
 8001324:	2008943a 	slli	r4,r4,16
 8001328:	b5bfffcc 	andi	r22,r22,65535
 800132c:	8145883a 	add	r2,r16,r5
 8001330:	2589883a 	add	r4,r4,r22
 8001334:	a8802c36 	bltu	r21,r2,80013e8 <__divdf3+0x6ec>
 8001338:	a880a426 	beq	r21,r2,80015cc <__divdf3+0x8d0>
 800133c:	9cc00054 	ori	r19,r19,1
 8001340:	9200ffc4 	addi	r8,r18,1023
 8001344:	023f270e 	bge	zero,r8,8000fe4 <__alt_data_end+0xfc000fe4>
 8001348:	988001cc 	andi	r2,r19,7
 800134c:	10000726 	beq	r2,zero,800136c <__divdf3+0x670>
 8001350:	990003cc 	andi	r4,r19,15
 8001354:	00800104 	movi	r2,4
 8001358:	20800426 	beq	r4,r2,800136c <__divdf3+0x670>
 800135c:	9885883a 	add	r2,r19,r2
 8001360:	14e7803a 	cmpltu	r19,r2,r19
 8001364:	8ce3883a 	add	r17,r17,r19
 8001368:	1027883a 	mov	r19,r2
 800136c:	8880402c 	andhi	r2,r17,256
 8001370:	10000426 	beq	r2,zero,8001384 <__divdf3+0x688>
 8001374:	00bfc034 	movhi	r2,65280
 8001378:	10bfffc4 	addi	r2,r2,-1
 800137c:	92010004 	addi	r8,r18,1024
 8001380:	88a2703a 	and	r17,r17,r2
 8001384:	0081ff84 	movi	r2,2046
 8001388:	123eb616 	blt	r2,r8,8000e64 <__alt_data_end+0xfc000e64>
 800138c:	9826d0fa 	srli	r19,r19,3
 8001390:	8804977a 	slli	r2,r17,29
 8001394:	8820927a 	slli	r16,r17,9
 8001398:	4201ffcc 	andi	r8,r8,2047
 800139c:	14e6b03a 	or	r19,r2,r19
 80013a0:	800ad33a 	srli	r5,r16,12
 80013a4:	a180004c 	andi	r6,r20,1
 80013a8:	003eb206 	br	8000e74 <__alt_data_end+0xfc000e74>
 80013ac:	008000c4 	movi	r2,3
 80013b0:	4080ac26 	beq	r8,r2,8001664 <__divdf3+0x968>
 80013b4:	00800044 	movi	r2,1
 80013b8:	4080591e 	bne	r8,r2,8001520 <__divdf3+0x824>
 80013bc:	e00d883a 	mov	r6,fp
 80013c0:	0011883a 	mov	r8,zero
 80013c4:	000b883a 	mov	r5,zero
 80013c8:	0027883a 	mov	r19,zero
 80013cc:	003ea906 	br	8000e74 <__alt_data_end+0xfc000e74>
 80013d0:	00800434 	movhi	r2,16
 80013d4:	89400234 	orhi	r5,r17,8
 80013d8:	10bfffc4 	addi	r2,r2,-1
 80013dc:	b00d883a 	mov	r6,r22
 80013e0:	288a703a 	and	r5,r5,r2
 80013e4:	003efd06 	br	8000fdc <__alt_data_end+0xfc000fdc>
 80013e8:	adcf883a 	add	r7,r21,r23
 80013ec:	997fffc4 	addi	r5,r19,-1
 80013f0:	3dc0412e 	bgeu	r7,r23,80014f8 <__divdf3+0x7fc>
 80013f4:	2827883a 	mov	r19,r5
 80013f8:	38bfd01e 	bne	r7,r2,800133c <__alt_data_end+0xfc00133c>
 80013fc:	d8c00117 	ldw	r3,4(sp)
 8001400:	193fce1e 	bne	r3,r4,800133c <__alt_data_end+0xfc00133c>
 8001404:	003fce06 	br	8001340 <__alt_data_end+0xfc001340>
 8001408:	d9800215 	stw	r6,8(sp)
 800140c:	d9c00515 	stw	r7,20(sp)
 8001410:	80020140 	call	8002014 <__clzsi2>
 8001414:	10c00804 	addi	r3,r2,32
 8001418:	010009c4 	movi	r4,39
 800141c:	d9800217 	ldw	r6,8(sp)
 8001420:	d9c00517 	ldw	r7,20(sp)
 8001424:	20feb20e 	bge	r4,r3,8000ef0 <__alt_data_end+0xfc000ef0>
 8001428:	117ffe04 	addi	r5,r2,-8
 800142c:	a162983a 	sll	r17,r20,r5
 8001430:	0027883a 	mov	r19,zero
 8001434:	003eb506 	br	8000f0c <__alt_data_end+0xfc000f0c>
 8001438:	3009883a 	mov	r4,r6
 800143c:	d9800215 	stw	r6,8(sp)
 8001440:	da000315 	stw	r8,12(sp)
 8001444:	da400415 	stw	r9,16(sp)
 8001448:	80020140 	call	8002014 <__clzsi2>
 800144c:	10c00804 	addi	r3,r2,32
 8001450:	010009c4 	movi	r4,39
 8001454:	d9800217 	ldw	r6,8(sp)
 8001458:	da000317 	ldw	r8,12(sp)
 800145c:	da400417 	ldw	r9,16(sp)
 8001460:	20fec10e 	bge	r4,r3,8000f68 <__alt_data_end+0xfc000f68>
 8001464:	10bffe04 	addi	r2,r2,-8
 8001468:	a8a0983a 	sll	r16,r21,r2
 800146c:	002b883a 	mov	r21,zero
 8001470:	003ec406 	br	8000f84 <__alt_data_end+0xfc000f84>
 8001474:	d8c00117 	ldw	r3,4(sp)
 8001478:	b0ed883a 	add	r22,r22,r3
 800147c:	b0c5803a 	cmpltu	r2,r22,r3
 8001480:	15c5883a 	add	r2,r2,r23
 8001484:	11cf883a 	add	r7,r2,r7
 8001488:	88bfffc4 	addi	r2,r17,-1
 800148c:	b9c00d2e 	bgeu	r23,r7,80014c4 <__divdf3+0x7c8>
 8001490:	39003f36 	bltu	r7,r4,8001590 <__divdf3+0x894>
 8001494:	21c06a26 	beq	r4,r7,8001640 <__divdf3+0x944>
 8001498:	3909c83a 	sub	r4,r7,r4
 800149c:	1023883a 	mov	r17,r2
 80014a0:	003f4f06 	br	80011e0 <__alt_data_end+0xfc0011e0>
 80014a4:	9d7ee536 	bltu	r19,r21,800103c <__alt_data_end+0xfc00103c>
 80014a8:	982ed07a 	srli	r23,r19,1
 80014ac:	880497fa 	slli	r2,r17,31
 80014b0:	8810d07a 	srli	r8,r17,1
 80014b4:	982c97fa 	slli	r22,r19,31
 80014b8:	b884b03a 	or	r2,r23,r2
 80014bc:	d8800015 	stw	r2,0(sp)
 80014c0:	003ee206 	br	800104c <__alt_data_end+0xfc00104c>
 80014c4:	3dfff41e 	bne	r7,r23,8001498 <__alt_data_end+0xfc001498>
 80014c8:	d8c00117 	ldw	r3,4(sp)
 80014cc:	b0fff02e 	bgeu	r22,r3,8001490 <__alt_data_end+0xfc001490>
 80014d0:	b909c83a 	sub	r4,r23,r4
 80014d4:	1023883a 	mov	r17,r2
 80014d8:	003f4106 	br	80011e0 <__alt_data_end+0xfc0011e0>
 80014dc:	1021883a 	mov	r16,r2
 80014e0:	003f1106 	br	8001128 <__alt_data_end+0xfc001128>
 80014e4:	1023883a 	mov	r17,r2
 80014e8:	003ef706 	br	80010c8 <__alt_data_end+0xfc0010c8>
 80014ec:	b23fe136 	bltu	r22,r8,8001474 <__alt_data_end+0xfc001474>
 80014f0:	0009883a 	mov	r4,zero
 80014f4:	003f3a06 	br	80011e0 <__alt_data_end+0xfc0011e0>
 80014f8:	38802c36 	bltu	r7,r2,80015ac <__divdf3+0x8b0>
 80014fc:	11c05326 	beq	r2,r7,800164c <__divdf3+0x950>
 8001500:	2827883a 	mov	r19,r5
 8001504:	003f8d06 	br	800133c <__alt_data_end+0xfc00133c>
 8001508:	04ffffc4 	movi	r19,-1
 800150c:	003f8c06 	br	8001340 <__alt_data_end+0xfc001340>
 8001510:	1011883a 	mov	r8,r2
 8001514:	003f4d06 	br	800124c <__alt_data_end+0xfc00124c>
 8001518:	1013883a 	mov	r9,r2
 800151c:	003f6406 	br	80012b0 <__alt_data_end+0xfc0012b0>
 8001520:	e029883a 	mov	r20,fp
 8001524:	003f8606 	br	8001340 <__alt_data_end+0xfc001340>
 8001528:	008007c4 	movi	r2,31
 800152c:	14002a16 	blt	r2,r16,80015d8 <__divdf3+0x8dc>
 8001530:	91410784 	addi	r5,r18,1054
 8001534:	9c0cd83a 	srl	r6,r19,r16
 8001538:	8948983a 	sll	r4,r17,r5
 800153c:	9944983a 	sll	r2,r19,r5
 8001540:	8c20d83a 	srl	r16,r17,r16
 8001544:	3108b03a 	or	r4,r6,r4
 8001548:	1004c03a 	cmpne	r2,r2,zero
 800154c:	2084b03a 	or	r2,r4,r2
 8001550:	110001cc 	andi	r4,r2,7
 8001554:	20000726 	beq	r4,zero,8001574 <__divdf3+0x878>
 8001558:	114003cc 	andi	r5,r2,15
 800155c:	01000104 	movi	r4,4
 8001560:	29000426 	beq	r5,r4,8001574 <__divdf3+0x878>
 8001564:	11000104 	addi	r4,r2,4
 8001568:	2085803a 	cmpltu	r2,r4,r2
 800156c:	80a1883a 	add	r16,r16,r2
 8001570:	2005883a 	mov	r2,r4
 8001574:	8100202c 	andhi	r4,r16,128
 8001578:	20002d26 	beq	r4,zero,8001630 <__divdf3+0x934>
 800157c:	a180004c 	andi	r6,r20,1
 8001580:	02000044 	movi	r8,1
 8001584:	000b883a 	mov	r5,zero
 8001588:	0027883a 	mov	r19,zero
 800158c:	003e3906 	br	8000e74 <__alt_data_end+0xfc000e74>
 8001590:	d8c00117 	ldw	r3,4(sp)
 8001594:	8c7fff84 	addi	r17,r17,-2
 8001598:	b0ed883a 	add	r22,r22,r3
 800159c:	b0c5803a 	cmpltu	r2,r22,r3
 80015a0:	15c5883a 	add	r2,r2,r23
 80015a4:	11cf883a 	add	r7,r2,r7
 80015a8:	003f0c06 	br	80011dc <__alt_data_end+0xfc0011dc>
 80015ac:	d8c00117 	ldw	r3,4(sp)
 80015b0:	997fff84 	addi	r5,r19,-2
 80015b4:	18d1883a 	add	r8,r3,r3
 80015b8:	40c7803a 	cmpltu	r3,r8,r3
 80015bc:	1dcd883a 	add	r6,r3,r23
 80015c0:	398f883a 	add	r7,r7,r6
 80015c4:	da000115 	stw	r8,4(sp)
 80015c8:	003f8a06 	br	80013f4 <__alt_data_end+0xfc0013f4>
 80015cc:	203f861e 	bne	r4,zero,80013e8 <__alt_data_end+0xfc0013e8>
 80015d0:	d8000115 	stw	zero,4(sp)
 80015d4:	003f8906 	br	80013fc <__alt_data_end+0xfc0013fc>
 80015d8:	00bef884 	movi	r2,-1054
 80015dc:	1485c83a 	sub	r2,r2,r18
 80015e0:	01000804 	movi	r4,32
 80015e4:	8884d83a 	srl	r2,r17,r2
 80015e8:	81001c26 	beq	r16,r4,800165c <__divdf3+0x960>
 80015ec:	91010f84 	addi	r4,r18,1086
 80015f0:	8908983a 	sll	r4,r17,r4
 80015f4:	24c8b03a 	or	r4,r4,r19
 80015f8:	2008c03a 	cmpne	r4,r4,zero
 80015fc:	2084b03a 	or	r2,r4,r2
 8001600:	140001cc 	andi	r16,r2,7
 8001604:	8000061e 	bne	r16,zero,8001620 <__divdf3+0x924>
 8001608:	000b883a 	mov	r5,zero
 800160c:	1004d0fa 	srli	r2,r2,3
 8001610:	a180004c 	andi	r6,r20,1
 8001614:	0011883a 	mov	r8,zero
 8001618:	1426b03a 	or	r19,r2,r16
 800161c:	003e1506 	br	8000e74 <__alt_data_end+0xfc000e74>
 8001620:	114003cc 	andi	r5,r2,15
 8001624:	01000104 	movi	r4,4
 8001628:	0021883a 	mov	r16,zero
 800162c:	293fcd1e 	bne	r5,r4,8001564 <__alt_data_end+0xfc001564>
 8001630:	800a927a 	slli	r5,r16,9
 8001634:	8020977a 	slli	r16,r16,29
 8001638:	280ad33a 	srli	r5,r5,12
 800163c:	003ff306 	br	800160c <__alt_data_end+0xfc00160c>
 8001640:	b23fd336 	bltu	r22,r8,8001590 <__alt_data_end+0xfc001590>
 8001644:	1023883a 	mov	r17,r2
 8001648:	003fa906 	br	80014f0 <__alt_data_end+0xfc0014f0>
 800164c:	d8c00117 	ldw	r3,4(sp)
 8001650:	193fd636 	bltu	r3,r4,80015ac <__alt_data_end+0xfc0015ac>
 8001654:	2827883a 	mov	r19,r5
 8001658:	003f6806 	br	80013fc <__alt_data_end+0xfc0013fc>
 800165c:	0009883a 	mov	r4,zero
 8001660:	003fe406 	br	80015f4 <__alt_data_end+0xfc0015f4>
 8001664:	00800434 	movhi	r2,16
 8001668:	89400234 	orhi	r5,r17,8
 800166c:	10bfffc4 	addi	r2,r2,-1
 8001670:	e00d883a 	mov	r6,fp
 8001674:	288a703a 	and	r5,r5,r2
 8001678:	003e5806 	br	8000fdc <__alt_data_end+0xfc000fdc>

0800167c <__muldf3>:
 800167c:	deffee04 	addi	sp,sp,-72
 8001680:	dd000c15 	stw	r20,48(sp)
 8001684:	2828d53a 	srli	r20,r5,20
 8001688:	dd400d15 	stw	r21,52(sp)
 800168c:	282ad7fa 	srli	r21,r5,31
 8001690:	dc000815 	stw	r16,32(sp)
 8001694:	04000434 	movhi	r16,16
 8001698:	ddc00f15 	stw	r23,60(sp)
 800169c:	dcc00b15 	stw	r19,44(sp)
 80016a0:	dc800a15 	stw	r18,40(sp)
 80016a4:	843fffc4 	addi	r16,r16,-1
 80016a8:	dfc01115 	stw	ra,68(sp)
 80016ac:	df001015 	stw	fp,64(sp)
 80016b0:	dd800e15 	stw	r22,56(sp)
 80016b4:	dc400915 	stw	r17,36(sp)
 80016b8:	a501ffcc 	andi	r20,r20,2047
 80016bc:	2025883a 	mov	r18,r4
 80016c0:	202f883a 	mov	r23,r4
 80016c4:	2c20703a 	and	r16,r5,r16
 80016c8:	a827883a 	mov	r19,r21
 80016cc:	aa403fcc 	andi	r9,r21,255
 80016d0:	a0005926 	beq	r20,zero,8001838 <__muldf3+0x1bc>
 80016d4:	0081ffc4 	movi	r2,2047
 80016d8:	a0803426 	beq	r20,r2,80017ac <__muldf3+0x130>
 80016dc:	84000434 	orhi	r16,r16,16
 80016e0:	2004d77a 	srli	r2,r4,29
 80016e4:	802090fa 	slli	r16,r16,3
 80016e8:	202e90fa 	slli	r23,r4,3
 80016ec:	a53f0044 	addi	r20,r20,-1023
 80016f0:	80a0b03a 	or	r16,r16,r2
 80016f4:	000b883a 	mov	r5,zero
 80016f8:	0039883a 	mov	fp,zero
 80016fc:	3806d53a 	srli	r3,r7,20
 8001700:	382cd7fa 	srli	r22,r7,31
 8001704:	00800434 	movhi	r2,16
 8001708:	10bfffc4 	addi	r2,r2,-1
 800170c:	18c1ffcc 	andi	r3,r3,2047
 8001710:	3025883a 	mov	r18,r6
 8001714:	38a2703a 	and	r17,r7,r2
 8001718:	b2803fcc 	andi	r10,r22,255
 800171c:	18006426 	beq	r3,zero,80018b0 <__muldf3+0x234>
 8001720:	0081ffc4 	movi	r2,2047
 8001724:	18805c26 	beq	r3,r2,8001898 <__muldf3+0x21c>
 8001728:	8c400434 	orhi	r17,r17,16
 800172c:	3004d77a 	srli	r2,r6,29
 8001730:	882290fa 	slli	r17,r17,3
 8001734:	302490fa 	slli	r18,r6,3
 8001738:	18ff0044 	addi	r3,r3,-1023
 800173c:	88a2b03a 	or	r17,r17,r2
 8001740:	000f883a 	mov	r7,zero
 8001744:	394ab03a 	or	r5,r7,r5
 8001748:	280a90ba 	slli	r5,r5,2
 800174c:	00820034 	movhi	r2,2048
 8001750:	1085db04 	addi	r2,r2,5996
 8001754:	288b883a 	add	r5,r5,r2
 8001758:	28800017 	ldw	r2,0(r5)
 800175c:	a0c7883a 	add	r3,r20,r3
 8001760:	b54cf03a 	xor	r6,r22,r21
 8001764:	1a000044 	addi	r8,r3,1
 8001768:	1000683a 	jmp	r2
 800176c:	080019b0 	cmpltui	zero,at,102
 8001770:	0800199c 	xori	zero,at,102
 8001774:	0800199c 	xori	zero,at,102
 8001778:	08001988 	cmpgei	zero,at,102
 800177c:	080017c8 	cmpgei	zero,at,95
 8001780:	080017c8 	cmpgei	zero,at,95
 8001784:	08001970 	cmpltui	zero,at,101
 8001788:	08001988 	cmpgei	zero,at,102
 800178c:	080017c8 	cmpgei	zero,at,95
 8001790:	08001970 	cmpltui	zero,at,101
 8001794:	080017c8 	cmpgei	zero,at,95
 8001798:	08001988 	cmpgei	zero,at,102
 800179c:	080017cc 	andi	zero,at,95
 80017a0:	080017cc 	andi	zero,at,95
 80017a4:	080017cc 	andi	zero,at,95
 80017a8:	08001cec 	andhi	zero,at,115
 80017ac:	8104b03a 	or	r2,r16,r4
 80017b0:	10006c1e 	bne	r2,zero,8001964 <__muldf3+0x2e8>
 80017b4:	01400204 	movi	r5,8
 80017b8:	0021883a 	mov	r16,zero
 80017bc:	002f883a 	mov	r23,zero
 80017c0:	07000084 	movi	fp,2
 80017c4:	003fcd06 	br	80016fc <__alt_data_end+0xfc0016fc>
 80017c8:	3013883a 	mov	r9,r6
 80017cc:	00800084 	movi	r2,2
 80017d0:	e080501e 	bne	fp,r2,8001914 <__muldf3+0x298>
 80017d4:	4cc0004c 	andi	r19,r9,1
 80017d8:	0101ffc4 	movi	r4,2047
 80017dc:	0021883a 	mov	r16,zero
 80017e0:	002f883a 	mov	r23,zero
 80017e4:	2008953a 	slli	r4,r4,20
 80017e8:	98c03fcc 	andi	r3,r19,255
 80017ec:	04400434 	movhi	r17,16
 80017f0:	8c7fffc4 	addi	r17,r17,-1
 80017f4:	180697fa 	slli	r3,r3,31
 80017f8:	8460703a 	and	r16,r16,r17
 80017fc:	8120b03a 	or	r16,r16,r4
 8001800:	80c6b03a 	or	r3,r16,r3
 8001804:	b805883a 	mov	r2,r23
 8001808:	dfc01117 	ldw	ra,68(sp)
 800180c:	df001017 	ldw	fp,64(sp)
 8001810:	ddc00f17 	ldw	r23,60(sp)
 8001814:	dd800e17 	ldw	r22,56(sp)
 8001818:	dd400d17 	ldw	r21,52(sp)
 800181c:	dd000c17 	ldw	r20,48(sp)
 8001820:	dcc00b17 	ldw	r19,44(sp)
 8001824:	dc800a17 	ldw	r18,40(sp)
 8001828:	dc400917 	ldw	r17,36(sp)
 800182c:	dc000817 	ldw	r16,32(sp)
 8001830:	dec01204 	addi	sp,sp,72
 8001834:	f800283a 	ret
 8001838:	8104b03a 	or	r2,r16,r4
 800183c:	10004426 	beq	r2,zero,8001950 <__muldf3+0x2d4>
 8001840:	80014b26 	beq	r16,zero,8001d70 <__muldf3+0x6f4>
 8001844:	8009883a 	mov	r4,r16
 8001848:	d9800715 	stw	r6,28(sp)
 800184c:	d9c00215 	stw	r7,8(sp)
 8001850:	da400415 	stw	r9,16(sp)
 8001854:	80020140 	call	8002014 <__clzsi2>
 8001858:	d9800717 	ldw	r6,28(sp)
 800185c:	d9c00217 	ldw	r7,8(sp)
 8001860:	da400417 	ldw	r9,16(sp)
 8001864:	1007883a 	mov	r3,r2
 8001868:	01000a04 	movi	r4,40
 800186c:	1dfffe04 	addi	r23,r3,-8
 8001870:	20c9c83a 	sub	r4,r4,r3
 8001874:	85e0983a 	sll	r16,r16,r23
 8001878:	9108d83a 	srl	r4,r18,r4
 800187c:	95ee983a 	sll	r23,r18,r23
 8001880:	2420b03a 	or	r16,r4,r16
 8001884:	053f0344 	movi	r20,-1011
 8001888:	a0e9c83a 	sub	r20,r20,r3
 800188c:	000b883a 	mov	r5,zero
 8001890:	0039883a 	mov	fp,zero
 8001894:	003f9906 	br	80016fc <__alt_data_end+0xfc0016fc>
 8001898:	8984b03a 	or	r2,r17,r6
 800189c:	10002a1e 	bne	r2,zero,8001948 <__muldf3+0x2cc>
 80018a0:	0023883a 	mov	r17,zero
 80018a4:	0025883a 	mov	r18,zero
 80018a8:	01c00084 	movi	r7,2
 80018ac:	003fa506 	br	8001744 <__alt_data_end+0xfc001744>
 80018b0:	8984b03a 	or	r2,r17,r6
 80018b4:	10002026 	beq	r2,zero,8001938 <__muldf3+0x2bc>
 80018b8:	88011c26 	beq	r17,zero,8001d2c <__muldf3+0x6b0>
 80018bc:	8809883a 	mov	r4,r17
 80018c0:	d9400215 	stw	r5,8(sp)
 80018c4:	d9800715 	stw	r6,28(sp)
 80018c8:	da400415 	stw	r9,16(sp)
 80018cc:	da800315 	stw	r10,12(sp)
 80018d0:	80020140 	call	8002014 <__clzsi2>
 80018d4:	d9400217 	ldw	r5,8(sp)
 80018d8:	d9800717 	ldw	r6,28(sp)
 80018dc:	da400417 	ldw	r9,16(sp)
 80018e0:	da800317 	ldw	r10,12(sp)
 80018e4:	1007883a 	mov	r3,r2
 80018e8:	01000a04 	movi	r4,40
 80018ec:	1cbffe04 	addi	r18,r3,-8
 80018f0:	20c9c83a 	sub	r4,r4,r3
 80018f4:	8ca2983a 	sll	r17,r17,r18
 80018f8:	3108d83a 	srl	r4,r6,r4
 80018fc:	34a4983a 	sll	r18,r6,r18
 8001900:	2462b03a 	or	r17,r4,r17
 8001904:	00bf0344 	movi	r2,-1011
 8001908:	10c7c83a 	sub	r3,r2,r3
 800190c:	000f883a 	mov	r7,zero
 8001910:	003f8c06 	br	8001744 <__alt_data_end+0xfc001744>
 8001914:	008000c4 	movi	r2,3
 8001918:	e0816d26 	beq	fp,r2,8001ed0 <__muldf3+0x854>
 800191c:	00800044 	movi	r2,1
 8001920:	e081321e 	bne	fp,r2,8001dec <__muldf3+0x770>
 8001924:	48a6703a 	and	r19,r9,r2
 8001928:	0009883a 	mov	r4,zero
 800192c:	0021883a 	mov	r16,zero
 8001930:	002f883a 	mov	r23,zero
 8001934:	003fab06 	br	80017e4 <__alt_data_end+0xfc0017e4>
 8001938:	0023883a 	mov	r17,zero
 800193c:	0025883a 	mov	r18,zero
 8001940:	01c00044 	movi	r7,1
 8001944:	003f7f06 	br	8001744 <__alt_data_end+0xfc001744>
 8001948:	01c000c4 	movi	r7,3
 800194c:	003f7d06 	br	8001744 <__alt_data_end+0xfc001744>
 8001950:	01400104 	movi	r5,4
 8001954:	0021883a 	mov	r16,zero
 8001958:	002f883a 	mov	r23,zero
 800195c:	07000044 	movi	fp,1
 8001960:	003f6606 	br	80016fc <__alt_data_end+0xfc0016fc>
 8001964:	01400304 	movi	r5,12
 8001968:	070000c4 	movi	fp,3
 800196c:	003f6306 	br	80016fc <__alt_data_end+0xfc0016fc>
 8001970:	04000434 	movhi	r16,16
 8001974:	0027883a 	mov	r19,zero
 8001978:	843fffc4 	addi	r16,r16,-1
 800197c:	05ffffc4 	movi	r23,-1
 8001980:	0101ffc4 	movi	r4,2047
 8001984:	003f9706 	br	80017e4 <__alt_data_end+0xfc0017e4>
 8001988:	8821883a 	mov	r16,r17
 800198c:	902f883a 	mov	r23,r18
 8001990:	5013883a 	mov	r9,r10
 8001994:	3839883a 	mov	fp,r7
 8001998:	003f8c06 	br	80017cc <__alt_data_end+0xfc0017cc>
 800199c:	8821883a 	mov	r16,r17
 80019a0:	902f883a 	mov	r23,r18
 80019a4:	3013883a 	mov	r9,r6
 80019a8:	3839883a 	mov	fp,r7
 80019ac:	003f8706 	br	80017cc <__alt_data_end+0xfc0017cc>
 80019b0:	b82ad43a 	srli	r21,r23,16
 80019b4:	9038d43a 	srli	fp,r18,16
 80019b8:	bdffffcc 	andi	r23,r23,65535
 80019bc:	94bfffcc 	andi	r18,r18,65535
 80019c0:	9009883a 	mov	r4,r18
 80019c4:	b80b883a 	mov	r5,r23
 80019c8:	d8c00515 	stw	r3,20(sp)
 80019cc:	d9800715 	stw	r6,28(sp)
 80019d0:	da000615 	stw	r8,24(sp)
 80019d4:	80021a40 	call	80021a4 <__mulsi3>
 80019d8:	9009883a 	mov	r4,r18
 80019dc:	a80b883a 	mov	r5,r21
 80019e0:	1029883a 	mov	r20,r2
 80019e4:	80021a40 	call	80021a4 <__mulsi3>
 80019e8:	e009883a 	mov	r4,fp
 80019ec:	a80b883a 	mov	r5,r21
 80019f0:	102d883a 	mov	r22,r2
 80019f4:	80021a40 	call	80021a4 <__mulsi3>
 80019f8:	e009883a 	mov	r4,fp
 80019fc:	b80b883a 	mov	r5,r23
 8001a00:	1027883a 	mov	r19,r2
 8001a04:	80021a40 	call	80021a4 <__mulsi3>
 8001a08:	a008d43a 	srli	r4,r20,16
 8001a0c:	b085883a 	add	r2,r22,r2
 8001a10:	d8c00517 	ldw	r3,20(sp)
 8001a14:	110f883a 	add	r7,r2,r4
 8001a18:	d9800717 	ldw	r6,28(sp)
 8001a1c:	da000617 	ldw	r8,24(sp)
 8001a20:	3d80022e 	bgeu	r7,r22,8001a2c <__muldf3+0x3b0>
 8001a24:	00800074 	movhi	r2,1
 8001a28:	98a7883a 	add	r19,r19,r2
 8001a2c:	3804943a 	slli	r2,r7,16
 8001a30:	380ed43a 	srli	r7,r7,16
 8001a34:	882cd43a 	srli	r22,r17,16
 8001a38:	a53fffcc 	andi	r20,r20,65535
 8001a3c:	8c7fffcc 	andi	r17,r17,65535
 8001a40:	1529883a 	add	r20,r2,r20
 8001a44:	8809883a 	mov	r4,r17
 8001a48:	b80b883a 	mov	r5,r23
 8001a4c:	d8c00515 	stw	r3,20(sp)
 8001a50:	d9800715 	stw	r6,28(sp)
 8001a54:	da000615 	stw	r8,24(sp)
 8001a58:	d9c00015 	stw	r7,0(sp)
 8001a5c:	dd000115 	stw	r20,4(sp)
 8001a60:	80021a40 	call	80021a4 <__mulsi3>
 8001a64:	a80b883a 	mov	r5,r21
 8001a68:	8809883a 	mov	r4,r17
 8001a6c:	d8800415 	stw	r2,16(sp)
 8001a70:	80021a40 	call	80021a4 <__mulsi3>
 8001a74:	a80b883a 	mov	r5,r21
 8001a78:	b009883a 	mov	r4,r22
 8001a7c:	1029883a 	mov	r20,r2
 8001a80:	80021a40 	call	80021a4 <__mulsi3>
 8001a84:	b009883a 	mov	r4,r22
 8001a88:	b80b883a 	mov	r5,r23
 8001a8c:	102b883a 	mov	r21,r2
 8001a90:	80021a40 	call	80021a4 <__mulsi3>
 8001a94:	da400417 	ldw	r9,16(sp)
 8001a98:	a085883a 	add	r2,r20,r2
 8001a9c:	d8c00517 	ldw	r3,20(sp)
 8001aa0:	4808d43a 	srli	r4,r9,16
 8001aa4:	d9800717 	ldw	r6,28(sp)
 8001aa8:	da000617 	ldw	r8,24(sp)
 8001aac:	1109883a 	add	r4,r2,r4
 8001ab0:	2500022e 	bgeu	r4,r20,8001abc <__muldf3+0x440>
 8001ab4:	00800074 	movhi	r2,1
 8001ab8:	a8ab883a 	add	r21,r21,r2
 8001abc:	200e943a 	slli	r7,r4,16
 8001ac0:	2004d43a 	srli	r2,r4,16
 8001ac4:	802ed43a 	srli	r23,r16,16
 8001ac8:	843fffcc 	andi	r16,r16,65535
 8001acc:	4d3fffcc 	andi	r20,r9,65535
 8001ad0:	9009883a 	mov	r4,r18
 8001ad4:	800b883a 	mov	r5,r16
 8001ad8:	3d29883a 	add	r20,r7,r20
 8001adc:	d8c00515 	stw	r3,20(sp)
 8001ae0:	d9800715 	stw	r6,28(sp)
 8001ae4:	da000615 	stw	r8,24(sp)
 8001ae8:	a8ab883a 	add	r21,r21,r2
 8001aec:	80021a40 	call	80021a4 <__mulsi3>
 8001af0:	9009883a 	mov	r4,r18
 8001af4:	b80b883a 	mov	r5,r23
 8001af8:	d8800315 	stw	r2,12(sp)
 8001afc:	80021a40 	call	80021a4 <__mulsi3>
 8001b00:	e009883a 	mov	r4,fp
 8001b04:	b80b883a 	mov	r5,r23
 8001b08:	1025883a 	mov	r18,r2
 8001b0c:	80021a40 	call	80021a4 <__mulsi3>
 8001b10:	e009883a 	mov	r4,fp
 8001b14:	800b883a 	mov	r5,r16
 8001b18:	d8800215 	stw	r2,8(sp)
 8001b1c:	80021a40 	call	80021a4 <__mulsi3>
 8001b20:	da800317 	ldw	r10,12(sp)
 8001b24:	d9400017 	ldw	r5,0(sp)
 8001b28:	9085883a 	add	r2,r18,r2
 8001b2c:	5008d43a 	srli	r4,r10,16
 8001b30:	a153883a 	add	r9,r20,r5
 8001b34:	d8c00517 	ldw	r3,20(sp)
 8001b38:	1109883a 	add	r4,r2,r4
 8001b3c:	d9800717 	ldw	r6,28(sp)
 8001b40:	da000617 	ldw	r8,24(sp)
 8001b44:	dac00217 	ldw	r11,8(sp)
 8001b48:	2480022e 	bgeu	r4,r18,8001b54 <__muldf3+0x4d8>
 8001b4c:	00800074 	movhi	r2,1
 8001b50:	5897883a 	add	r11,r11,r2
 8001b54:	200e943a 	slli	r7,r4,16
 8001b58:	2038d43a 	srli	fp,r4,16
 8001b5c:	52bfffcc 	andi	r10,r10,65535
 8001b60:	3a8f883a 	add	r7,r7,r10
 8001b64:	8809883a 	mov	r4,r17
 8001b68:	800b883a 	mov	r5,r16
 8001b6c:	d8c00515 	stw	r3,20(sp)
 8001b70:	d9800715 	stw	r6,28(sp)
 8001b74:	d9c00215 	stw	r7,8(sp)
 8001b78:	da000615 	stw	r8,24(sp)
 8001b7c:	da400415 	stw	r9,16(sp)
 8001b80:	5f39883a 	add	fp,r11,fp
 8001b84:	80021a40 	call	80021a4 <__mulsi3>
 8001b88:	8809883a 	mov	r4,r17
 8001b8c:	b80b883a 	mov	r5,r23
 8001b90:	1025883a 	mov	r18,r2
 8001b94:	80021a40 	call	80021a4 <__mulsi3>
 8001b98:	b009883a 	mov	r4,r22
 8001b9c:	b80b883a 	mov	r5,r23
 8001ba0:	d8800315 	stw	r2,12(sp)
 8001ba4:	80021a40 	call	80021a4 <__mulsi3>
 8001ba8:	b009883a 	mov	r4,r22
 8001bac:	800b883a 	mov	r5,r16
 8001bb0:	1023883a 	mov	r17,r2
 8001bb4:	80021a40 	call	80021a4 <__mulsi3>
 8001bb8:	da800317 	ldw	r10,12(sp)
 8001bbc:	9008d43a 	srli	r4,r18,16
 8001bc0:	d8c00517 	ldw	r3,20(sp)
 8001bc4:	5085883a 	add	r2,r10,r2
 8001bc8:	1109883a 	add	r4,r2,r4
 8001bcc:	d9800717 	ldw	r6,28(sp)
 8001bd0:	d9c00217 	ldw	r7,8(sp)
 8001bd4:	da000617 	ldw	r8,24(sp)
 8001bd8:	da400417 	ldw	r9,16(sp)
 8001bdc:	2280022e 	bgeu	r4,r10,8001be8 <__muldf3+0x56c>
 8001be0:	00800074 	movhi	r2,1
 8001be4:	88a3883a 	add	r17,r17,r2
 8001be8:	2004943a 	slli	r2,r4,16
 8001bec:	94bfffcc 	andi	r18,r18,65535
 8001bf0:	4ce7883a 	add	r19,r9,r19
 8001bf4:	14a5883a 	add	r18,r2,r18
 8001bf8:	9d29803a 	cmpltu	r20,r19,r20
 8001bfc:	9565883a 	add	r18,r18,r21
 8001c00:	9505883a 	add	r2,r18,r20
 8001c04:	99e7883a 	add	r19,r19,r7
 8001c08:	99cf803a 	cmpltu	r7,r19,r7
 8001c0c:	e08b883a 	add	r5,fp,r2
 8001c10:	2008d43a 	srli	r4,r4,16
 8001c14:	29ef883a 	add	r23,r5,r7
 8001c18:	1529803a 	cmpltu	r20,r2,r20
 8001c1c:	956b803a 	cmpltu	r21,r18,r21
 8001c20:	b9cf803a 	cmpltu	r7,r23,r7
 8001c24:	a564b03a 	or	r18,r20,r21
 8001c28:	2f39803a 	cmpltu	fp,r5,fp
 8001c2c:	9125883a 	add	r18,r18,r4
 8001c30:	3f38b03a 	or	fp,r7,fp
 8001c34:	9725883a 	add	r18,r18,fp
 8001c38:	9804927a 	slli	r2,r19,9
 8001c3c:	9463883a 	add	r17,r18,r17
 8001c40:	d9000117 	ldw	r4,4(sp)
 8001c44:	b820d5fa 	srli	r16,r23,23
 8001c48:	8822927a 	slli	r17,r17,9
 8001c4c:	9826d5fa 	srli	r19,r19,23
 8001c50:	1104b03a 	or	r2,r2,r4
 8001c54:	b82e927a 	slli	r23,r23,9
 8001c58:	1004c03a 	cmpne	r2,r2,zero
 8001c5c:	8c20b03a 	or	r16,r17,r16
 8001c60:	14e6b03a 	or	r19,r2,r19
 8001c64:	8080402c 	andhi	r2,r16,256
 8001c68:	9deeb03a 	or	r23,r19,r23
 8001c6c:	10000726 	beq	r2,zero,8001c8c <__muldf3+0x610>
 8001c70:	b804d07a 	srli	r2,r23,1
 8001c74:	800697fa 	slli	r3,r16,31
 8001c78:	bdc0004c 	andi	r23,r23,1
 8001c7c:	8020d07a 	srli	r16,r16,1
 8001c80:	b8aeb03a 	or	r23,r23,r2
 8001c84:	b8eeb03a 	or	r23,r23,r3
 8001c88:	4007883a 	mov	r3,r8
 8001c8c:	1900ffc4 	addi	r4,r3,1023
 8001c90:	01004d0e 	bge	zero,r4,8001dc8 <__muldf3+0x74c>
 8001c94:	b88001cc 	andi	r2,r23,7
 8001c98:	10000726 	beq	r2,zero,8001cb8 <__muldf3+0x63c>
 8001c9c:	b94003cc 	andi	r5,r23,15
 8001ca0:	00800104 	movi	r2,4
 8001ca4:	28800426 	beq	r5,r2,8001cb8 <__muldf3+0x63c>
 8001ca8:	b885883a 	add	r2,r23,r2
 8001cac:	15ef803a 	cmpltu	r23,r2,r23
 8001cb0:	85e1883a 	add	r16,r16,r23
 8001cb4:	102f883a 	mov	r23,r2
 8001cb8:	8080402c 	andhi	r2,r16,256
 8001cbc:	10000426 	beq	r2,zero,8001cd0 <__muldf3+0x654>
 8001cc0:	00bfc034 	movhi	r2,65280
 8001cc4:	10bfffc4 	addi	r2,r2,-1
 8001cc8:	19010004 	addi	r4,r3,1024
 8001ccc:	80a0703a 	and	r16,r16,r2
 8001cd0:	0081ff84 	movi	r2,2046
 8001cd4:	1100340e 	bge	r2,r4,8001da8 <__muldf3+0x72c>
 8001cd8:	34c0004c 	andi	r19,r6,1
 8001cdc:	0101ffc4 	movi	r4,2047
 8001ce0:	0021883a 	mov	r16,zero
 8001ce4:	002f883a 	mov	r23,zero
 8001ce8:	003ebe06 	br	80017e4 <__alt_data_end+0xfc0017e4>
 8001cec:	8080022c 	andhi	r2,r16,8
 8001cf0:	10000926 	beq	r2,zero,8001d18 <__muldf3+0x69c>
 8001cf4:	8880022c 	andhi	r2,r17,8
 8001cf8:	1000071e 	bne	r2,zero,8001d18 <__muldf3+0x69c>
 8001cfc:	00800434 	movhi	r2,16
 8001d00:	8c000234 	orhi	r16,r17,8
 8001d04:	10bfffc4 	addi	r2,r2,-1
 8001d08:	b027883a 	mov	r19,r22
 8001d0c:	80a0703a 	and	r16,r16,r2
 8001d10:	902f883a 	mov	r23,r18
 8001d14:	003f1a06 	br	8001980 <__alt_data_end+0xfc001980>
 8001d18:	00800434 	movhi	r2,16
 8001d1c:	84000234 	orhi	r16,r16,8
 8001d20:	10bfffc4 	addi	r2,r2,-1
 8001d24:	80a0703a 	and	r16,r16,r2
 8001d28:	003f1506 	br	8001980 <__alt_data_end+0xfc001980>
 8001d2c:	3009883a 	mov	r4,r6
 8001d30:	d9400215 	stw	r5,8(sp)
 8001d34:	d9800715 	stw	r6,28(sp)
 8001d38:	da400415 	stw	r9,16(sp)
 8001d3c:	da800315 	stw	r10,12(sp)
 8001d40:	80020140 	call	8002014 <__clzsi2>
 8001d44:	10c00804 	addi	r3,r2,32
 8001d48:	010009c4 	movi	r4,39
 8001d4c:	d9400217 	ldw	r5,8(sp)
 8001d50:	d9800717 	ldw	r6,28(sp)
 8001d54:	da400417 	ldw	r9,16(sp)
 8001d58:	da800317 	ldw	r10,12(sp)
 8001d5c:	20fee20e 	bge	r4,r3,80018e8 <__alt_data_end+0xfc0018e8>
 8001d60:	147ffe04 	addi	r17,r2,-8
 8001d64:	9462983a 	sll	r17,r18,r17
 8001d68:	0025883a 	mov	r18,zero
 8001d6c:	003ee506 	br	8001904 <__alt_data_end+0xfc001904>
 8001d70:	d9800715 	stw	r6,28(sp)
 8001d74:	d9c00215 	stw	r7,8(sp)
 8001d78:	da400415 	stw	r9,16(sp)
 8001d7c:	80020140 	call	8002014 <__clzsi2>
 8001d80:	10c00804 	addi	r3,r2,32
 8001d84:	010009c4 	movi	r4,39
 8001d88:	d9800717 	ldw	r6,28(sp)
 8001d8c:	d9c00217 	ldw	r7,8(sp)
 8001d90:	da400417 	ldw	r9,16(sp)
 8001d94:	20feb40e 	bge	r4,r3,8001868 <__alt_data_end+0xfc001868>
 8001d98:	143ffe04 	addi	r16,r2,-8
 8001d9c:	9420983a 	sll	r16,r18,r16
 8001da0:	002f883a 	mov	r23,zero
 8001da4:	003eb706 	br	8001884 <__alt_data_end+0xfc001884>
 8001da8:	8004977a 	slli	r2,r16,29
 8001dac:	b82ed0fa 	srli	r23,r23,3
 8001db0:	8020927a 	slli	r16,r16,9
 8001db4:	2101ffcc 	andi	r4,r4,2047
 8001db8:	15eeb03a 	or	r23,r2,r23
 8001dbc:	8020d33a 	srli	r16,r16,12
 8001dc0:	34c0004c 	andi	r19,r6,1
 8001dc4:	003e8706 	br	80017e4 <__alt_data_end+0xfc0017e4>
 8001dc8:	00bf0084 	movi	r2,-1022
 8001dcc:	10c5c83a 	sub	r2,r2,r3
 8001dd0:	01000e04 	movi	r4,56
 8001dd4:	2080080e 	bge	r4,r2,8001df8 <__muldf3+0x77c>
 8001dd8:	34c0004c 	andi	r19,r6,1
 8001ddc:	0009883a 	mov	r4,zero
 8001de0:	0021883a 	mov	r16,zero
 8001de4:	002f883a 	mov	r23,zero
 8001de8:	003e7e06 	br	80017e4 <__alt_data_end+0xfc0017e4>
 8001dec:	4007883a 	mov	r3,r8
 8001df0:	480d883a 	mov	r6,r9
 8001df4:	003fa506 	br	8001c8c <__alt_data_end+0xfc001c8c>
 8001df8:	010007c4 	movi	r4,31
 8001dfc:	20801816 	blt	r4,r2,8001e60 <__muldf3+0x7e4>
 8001e00:	18c10784 	addi	r3,r3,1054
 8001e04:	80c8983a 	sll	r4,r16,r3
 8001e08:	b88ad83a 	srl	r5,r23,r2
 8001e0c:	b8c6983a 	sll	r3,r23,r3
 8001e10:	80a0d83a 	srl	r16,r16,r2
 8001e14:	2908b03a 	or	r4,r5,r4
 8001e18:	1804c03a 	cmpne	r2,r3,zero
 8001e1c:	2088b03a 	or	r4,r4,r2
 8001e20:	208001cc 	andi	r2,r4,7
 8001e24:	10000726 	beq	r2,zero,8001e44 <__muldf3+0x7c8>
 8001e28:	20c003cc 	andi	r3,r4,15
 8001e2c:	00800104 	movi	r2,4
 8001e30:	18800426 	beq	r3,r2,8001e44 <__muldf3+0x7c8>
 8001e34:	20c00104 	addi	r3,r4,4
 8001e38:	1905803a 	cmpltu	r2,r3,r4
 8001e3c:	80a1883a 	add	r16,r16,r2
 8001e40:	1809883a 	mov	r4,r3
 8001e44:	8080202c 	andhi	r2,r16,128
 8001e48:	10001b26 	beq	r2,zero,8001eb8 <__muldf3+0x83c>
 8001e4c:	34c0004c 	andi	r19,r6,1
 8001e50:	01000044 	movi	r4,1
 8001e54:	0021883a 	mov	r16,zero
 8001e58:	002f883a 	mov	r23,zero
 8001e5c:	003e6106 	br	80017e4 <__alt_data_end+0xfc0017e4>
 8001e60:	013ef884 	movi	r4,-1054
 8001e64:	20c9c83a 	sub	r4,r4,r3
 8001e68:	01400804 	movi	r5,32
 8001e6c:	8108d83a 	srl	r4,r16,r4
 8001e70:	11401526 	beq	r2,r5,8001ec8 <__muldf3+0x84c>
 8001e74:	18c10f84 	addi	r3,r3,1086
 8001e78:	80e0983a 	sll	r16,r16,r3
 8001e7c:	85eeb03a 	or	r23,r16,r23
 8001e80:	b804c03a 	cmpne	r2,r23,zero
 8001e84:	1108b03a 	or	r4,r2,r4
 8001e88:	20c001cc 	andi	r3,r4,7
 8001e8c:	1800061e 	bne	r3,zero,8001ea8 <__muldf3+0x82c>
 8001e90:	0021883a 	mov	r16,zero
 8001e94:	202ed0fa 	srli	r23,r4,3
 8001e98:	34c0004c 	andi	r19,r6,1
 8001e9c:	0009883a 	mov	r4,zero
 8001ea0:	b8eeb03a 	or	r23,r23,r3
 8001ea4:	003e4f06 	br	80017e4 <__alt_data_end+0xfc0017e4>
 8001ea8:	20c003cc 	andi	r3,r4,15
 8001eac:	00800104 	movi	r2,4
 8001eb0:	0021883a 	mov	r16,zero
 8001eb4:	18bfdf1e 	bne	r3,r2,8001e34 <__alt_data_end+0xfc001e34>
 8001eb8:	8004927a 	slli	r2,r16,9
 8001ebc:	8006977a 	slli	r3,r16,29
 8001ec0:	1020d33a 	srli	r16,r2,12
 8001ec4:	003ff306 	br	8001e94 <__alt_data_end+0xfc001e94>
 8001ec8:	0021883a 	mov	r16,zero
 8001ecc:	003feb06 	br	8001e7c <__alt_data_end+0xfc001e7c>
 8001ed0:	00800434 	movhi	r2,16
 8001ed4:	84000234 	orhi	r16,r16,8
 8001ed8:	10bfffc4 	addi	r2,r2,-1
 8001edc:	4cc0004c 	andi	r19,r9,1
 8001ee0:	80a0703a 	and	r16,r16,r2
 8001ee4:	003ea606 	br	8001980 <__alt_data_end+0xfc001980>

08001ee8 <__fixdfsi>:
 8001ee8:	2806d53a 	srli	r3,r5,20
 8001eec:	00800434 	movhi	r2,16
 8001ef0:	10bfffc4 	addi	r2,r2,-1
 8001ef4:	18c1ffcc 	andi	r3,r3,2047
 8001ef8:	0180ff84 	movi	r6,1022
 8001efc:	2884703a 	and	r2,r5,r2
 8001f00:	280ad7fa 	srli	r5,r5,31
 8001f04:	30c0130e 	bge	r6,r3,8001f54 <__fixdfsi+0x6c>
 8001f08:	01810744 	movi	r6,1053
 8001f0c:	30c00d16 	blt	r6,r3,8001f44 <__fixdfsi+0x5c>
 8001f10:	01810cc4 	movi	r6,1075
 8001f14:	30cdc83a 	sub	r6,r6,r3
 8001f18:	01c007c4 	movi	r7,31
 8001f1c:	10800434 	orhi	r2,r2,16
 8001f20:	39800e0e 	bge	r7,r6,8001f5c <__fixdfsi+0x74>
 8001f24:	010104c4 	movi	r4,1043
 8001f28:	20c7c83a 	sub	r3,r4,r3
 8001f2c:	10c6d83a 	srl	r3,r2,r3
 8001f30:	29403fcc 	andi	r5,r5,255
 8001f34:	0145c83a 	sub	r2,zero,r5
 8001f38:	1884f03a 	xor	r2,r3,r2
 8001f3c:	1145883a 	add	r2,r2,r5
 8001f40:	f800283a 	ret
 8001f44:	00a00034 	movhi	r2,32768
 8001f48:	10bfffc4 	addi	r2,r2,-1
 8001f4c:	2885883a 	add	r2,r5,r2
 8001f50:	f800283a 	ret
 8001f54:	0005883a 	mov	r2,zero
 8001f58:	f800283a 	ret
 8001f5c:	18fefb44 	addi	r3,r3,-1043
 8001f60:	2188d83a 	srl	r4,r4,r6
 8001f64:	10c6983a 	sll	r3,r2,r3
 8001f68:	20c6b03a 	or	r3,r4,r3
 8001f6c:	003ff006 	br	8001f30 <__alt_data_end+0xfc001f30>

08001f70 <__floatunsidf>:
 8001f70:	defffe04 	addi	sp,sp,-8
 8001f74:	dc000015 	stw	r16,0(sp)
 8001f78:	dfc00115 	stw	ra,4(sp)
 8001f7c:	2021883a 	mov	r16,r4
 8001f80:	20001026 	beq	r4,zero,8001fc4 <__floatunsidf+0x54>
 8001f84:	80020140 	call	8002014 <__clzsi2>
 8001f88:	01410784 	movi	r5,1054
 8001f8c:	100d883a 	mov	r6,r2
 8001f90:	288bc83a 	sub	r5,r5,r2
 8001f94:	00800284 	movi	r2,10
 8001f98:	11801616 	blt	r2,r6,8001ff4 <__floatunsidf+0x84>
 8001f9c:	008002c4 	movi	r2,11
 8001fa0:	1185c83a 	sub	r2,r2,r6
 8001fa4:	8084d83a 	srl	r2,r16,r2
 8001fa8:	00c00434 	movhi	r3,16
 8001fac:	31c00544 	addi	r7,r6,21
 8001fb0:	18ffffc4 	addi	r3,r3,-1
 8001fb4:	81e0983a 	sll	r16,r16,r7
 8001fb8:	10cc703a 	and	r6,r2,r3
 8001fbc:	2941ffcc 	andi	r5,r5,2047
 8001fc0:	00000206 	br	8001fcc <__floatunsidf+0x5c>
 8001fc4:	000b883a 	mov	r5,zero
 8001fc8:	000d883a 	mov	r6,zero
 8001fcc:	280a953a 	slli	r5,r5,20
 8001fd0:	00c00434 	movhi	r3,16
 8001fd4:	18ffffc4 	addi	r3,r3,-1
 8001fd8:	30c6703a 	and	r3,r6,r3
 8001fdc:	8005883a 	mov	r2,r16
 8001fe0:	1946b03a 	or	r3,r3,r5
 8001fe4:	dfc00117 	ldw	ra,4(sp)
 8001fe8:	dc000017 	ldw	r16,0(sp)
 8001fec:	dec00204 	addi	sp,sp,8
 8001ff0:	f800283a 	ret
 8001ff4:	31bffd44 	addi	r6,r6,-11
 8001ff8:	818c983a 	sll	r6,r16,r6
 8001ffc:	00800434 	movhi	r2,16
 8002000:	10bfffc4 	addi	r2,r2,-1
 8002004:	2941ffcc 	andi	r5,r5,2047
 8002008:	0021883a 	mov	r16,zero
 800200c:	308c703a 	and	r6,r6,r2
 8002010:	003fee06 	br	8001fcc <__alt_data_end+0xfc001fcc>

08002014 <__clzsi2>:
 8002014:	00bfffd4 	movui	r2,65535
 8002018:	11000b36 	bltu	r2,r4,8002048 <__clzsi2+0x34>
 800201c:	00803fc4 	movi	r2,255
 8002020:	1100122e 	bgeu	r2,r4,800206c <__clzsi2+0x58>
 8002024:	00c00204 	movi	r3,8
 8002028:	01400604 	movi	r5,24
 800202c:	20c8d83a 	srl	r4,r4,r3
 8002030:	00820074 	movhi	r2,2049
 8002034:	1081a604 	addi	r2,r2,1688
 8002038:	1109883a 	add	r4,r2,r4
 800203c:	20800003 	ldbu	r2,0(r4)
 8002040:	2885c83a 	sub	r2,r5,r2
 8002044:	f800283a 	ret
 8002048:	00804034 	movhi	r2,256
 800204c:	10bfffc4 	addi	r2,r2,-1
 8002050:	11000336 	bltu	r2,r4,8002060 <__clzsi2+0x4c>
 8002054:	00c00404 	movi	r3,16
 8002058:	180b883a 	mov	r5,r3
 800205c:	003ff306 	br	800202c <__alt_data_end+0xfc00202c>
 8002060:	00c00604 	movi	r3,24
 8002064:	01400204 	movi	r5,8
 8002068:	003ff006 	br	800202c <__alt_data_end+0xfc00202c>
 800206c:	0007883a 	mov	r3,zero
 8002070:	01400804 	movi	r5,32
 8002074:	003fed06 	br	800202c <__alt_data_end+0xfc00202c>

08002078 <udivmodsi4>:
 8002078:	2900182e 	bgeu	r5,r4,80020dc <udivmodsi4+0x64>
 800207c:	28001716 	blt	r5,zero,80020dc <udivmodsi4+0x64>
 8002080:	00800804 	movi	r2,32
 8002084:	00c00044 	movi	r3,1
 8002088:	00000206 	br	8002094 <udivmodsi4+0x1c>
 800208c:	10001126 	beq	r2,zero,80020d4 <udivmodsi4+0x5c>
 8002090:	28000516 	blt	r5,zero,80020a8 <udivmodsi4+0x30>
 8002094:	294b883a 	add	r5,r5,r5
 8002098:	10bfffc4 	addi	r2,r2,-1
 800209c:	18c7883a 	add	r3,r3,r3
 80020a0:	293ffa36 	bltu	r5,r4,800208c <__alt_data_end+0xfc00208c>
 80020a4:	18000b26 	beq	r3,zero,80020d4 <udivmodsi4+0x5c>
 80020a8:	0005883a 	mov	r2,zero
 80020ac:	21400236 	bltu	r4,r5,80020b8 <udivmodsi4+0x40>
 80020b0:	2149c83a 	sub	r4,r4,r5
 80020b4:	10c4b03a 	or	r2,r2,r3
 80020b8:	1806d07a 	srli	r3,r3,1
 80020bc:	280ad07a 	srli	r5,r5,1
 80020c0:	183ffa1e 	bne	r3,zero,80020ac <__alt_data_end+0xfc0020ac>
 80020c4:	3000011e 	bne	r6,zero,80020cc <udivmodsi4+0x54>
 80020c8:	f800283a 	ret
 80020cc:	2005883a 	mov	r2,r4
 80020d0:	f800283a 	ret
 80020d4:	0005883a 	mov	r2,zero
 80020d8:	003ffa06 	br	80020c4 <__alt_data_end+0xfc0020c4>
 80020dc:	00c00044 	movi	r3,1
 80020e0:	003ff106 	br	80020a8 <__alt_data_end+0xfc0020a8>

080020e4 <__divsi3>:
 80020e4:	defffe04 	addi	sp,sp,-8
 80020e8:	dfc00115 	stw	ra,4(sp)
 80020ec:	dc000015 	stw	r16,0(sp)
 80020f0:	20000b16 	blt	r4,zero,8002120 <__divsi3+0x3c>
 80020f4:	0021883a 	mov	r16,zero
 80020f8:	28000c16 	blt	r5,zero,800212c <__divsi3+0x48>
 80020fc:	000d883a 	mov	r6,zero
 8002100:	80020780 	call	8002078 <udivmodsi4>
 8002104:	0407c83a 	sub	r3,zero,r16
 8002108:	1884f03a 	xor	r2,r3,r2
 800210c:	1405883a 	add	r2,r2,r16
 8002110:	dfc00117 	ldw	ra,4(sp)
 8002114:	dc000017 	ldw	r16,0(sp)
 8002118:	dec00204 	addi	sp,sp,8
 800211c:	f800283a 	ret
 8002120:	0109c83a 	sub	r4,zero,r4
 8002124:	04000044 	movi	r16,1
 8002128:	283ff40e 	bge	r5,zero,80020fc <__alt_data_end+0xfc0020fc>
 800212c:	014bc83a 	sub	r5,zero,r5
 8002130:	8400005c 	xori	r16,r16,1
 8002134:	003ff106 	br	80020fc <__alt_data_end+0xfc0020fc>

08002138 <__modsi3>:
 8002138:	defffd04 	addi	sp,sp,-12
 800213c:	dfc00215 	stw	ra,8(sp)
 8002140:	dc400115 	stw	r17,4(sp)
 8002144:	dc000015 	stw	r16,0(sp)
 8002148:	20000c16 	blt	r4,zero,800217c <__modsi3+0x44>
 800214c:	0023883a 	mov	r17,zero
 8002150:	0021883a 	mov	r16,zero
 8002154:	28000d16 	blt	r5,zero,800218c <__modsi3+0x54>
 8002158:	01800044 	movi	r6,1
 800215c:	80020780 	call	8002078 <udivmodsi4>
 8002160:	1404f03a 	xor	r2,r2,r16
 8002164:	8885883a 	add	r2,r17,r2
 8002168:	dfc00217 	ldw	ra,8(sp)
 800216c:	dc400117 	ldw	r17,4(sp)
 8002170:	dc000017 	ldw	r16,0(sp)
 8002174:	dec00304 	addi	sp,sp,12
 8002178:	f800283a 	ret
 800217c:	0109c83a 	sub	r4,zero,r4
 8002180:	04400044 	movi	r17,1
 8002184:	043fffc4 	movi	r16,-1
 8002188:	283ff30e 	bge	r5,zero,8002158 <__alt_data_end+0xfc002158>
 800218c:	014bc83a 	sub	r5,zero,r5
 8002190:	003ff106 	br	8002158 <__alt_data_end+0xfc002158>

08002194 <__udivsi3>:
 8002194:	000d883a 	mov	r6,zero
 8002198:	80020781 	jmpi	8002078 <udivmodsi4>

0800219c <__umodsi3>:
 800219c:	01800044 	movi	r6,1
 80021a0:	80020781 	jmpi	8002078 <udivmodsi4>

080021a4 <__mulsi3>:
 80021a4:	0005883a 	mov	r2,zero
 80021a8:	20000726 	beq	r4,zero,80021c8 <__mulsi3+0x24>
 80021ac:	20c0004c 	andi	r3,r4,1
 80021b0:	2008d07a 	srli	r4,r4,1
 80021b4:	18000126 	beq	r3,zero,80021bc <__mulsi3+0x18>
 80021b8:	1145883a 	add	r2,r2,r5
 80021bc:	294b883a 	add	r5,r5,r5
 80021c0:	203ffa1e 	bne	r4,zero,80021ac <__alt_data_end+0xfc0021ac>
 80021c4:	f800283a 	ret
 80021c8:	f800283a 	ret

080021cc <_printf_r>:
 80021cc:	defffd04 	addi	sp,sp,-12
 80021d0:	dfc00015 	stw	ra,0(sp)
 80021d4:	d9800115 	stw	r6,4(sp)
 80021d8:	d9c00215 	stw	r7,8(sp)
 80021dc:	280d883a 	mov	r6,r5
 80021e0:	21400217 	ldw	r5,8(r4)
 80021e4:	d9c00104 	addi	r7,sp,4
 80021e8:	80023b80 	call	80023b8 <___vfprintf_internal_r>
 80021ec:	dfc00017 	ldw	ra,0(sp)
 80021f0:	dec00304 	addi	sp,sp,12
 80021f4:	f800283a 	ret

080021f8 <printf>:
 80021f8:	defffc04 	addi	sp,sp,-16
 80021fc:	dfc00015 	stw	ra,0(sp)
 8002200:	d9400115 	stw	r5,4(sp)
 8002204:	d9800215 	stw	r6,8(sp)
 8002208:	d9c00315 	stw	r7,12(sp)
 800220c:	00820074 	movhi	r2,2049
 8002210:	10892304 	addi	r2,r2,9356
 8002214:	10800017 	ldw	r2,0(r2)
 8002218:	200b883a 	mov	r5,r4
 800221c:	d9800104 	addi	r6,sp,4
 8002220:	11000217 	ldw	r4,8(r2)
 8002224:	80044b40 	call	80044b4 <__vfprintf_internal>
 8002228:	dfc00017 	ldw	ra,0(sp)
 800222c:	dec00404 	addi	sp,sp,16
 8002230:	f800283a 	ret

08002234 <_putchar_r>:
 8002234:	21800217 	ldw	r6,8(r4)
 8002238:	8008eb41 	jmpi	8008eb4 <_putc_r>

0800223c <putchar>:
 800223c:	00820074 	movhi	r2,2049
 8002240:	10892304 	addi	r2,r2,9356
 8002244:	200b883a 	mov	r5,r4
 8002248:	11000017 	ldw	r4,0(r2)
 800224c:	21800217 	ldw	r6,8(r4)
 8002250:	8008eb41 	jmpi	8008eb4 <_putc_r>

08002254 <_puts_r>:
 8002254:	defff604 	addi	sp,sp,-40
 8002258:	dc000715 	stw	r16,28(sp)
 800225c:	2021883a 	mov	r16,r4
 8002260:	2809883a 	mov	r4,r5
 8002264:	dc400815 	stw	r17,32(sp)
 8002268:	dfc00915 	stw	ra,36(sp)
 800226c:	2823883a 	mov	r17,r5
 8002270:	80023200 	call	8002320 <strlen>
 8002274:	00c20074 	movhi	r3,2049
 8002278:	18c92304 	addi	r3,r3,9356
 800227c:	18c00017 	ldw	r3,0(r3)
 8002280:	11000044 	addi	r4,r2,1
 8002284:	d8800115 	stw	r2,4(sp)
 8002288:	18c00217 	ldw	r3,8(r3)
 800228c:	01420074 	movhi	r5,2049
 8002290:	2941e604 	addi	r5,r5,1944
 8002294:	1880030b 	ldhu	r2,12(r3)
 8002298:	d9400215 	stw	r5,8(sp)
 800229c:	d9000615 	stw	r4,24(sp)
 80022a0:	01400044 	movi	r5,1
 80022a4:	01000084 	movi	r4,2
 80022a8:	d9000515 	stw	r4,20(sp)
 80022ac:	dc400015 	stw	r17,0(sp)
 80022b0:	d9400315 	stw	r5,12(sp)
 80022b4:	dec00415 	stw	sp,16(sp)
 80022b8:	1108000c 	andi	r4,r2,8192
 80022bc:	2000061e 	bne	r4,zero,80022d8 <_puts_r+0x84>
 80022c0:	19401917 	ldw	r5,100(r3)
 80022c4:	0137ffc4 	movi	r4,-8193
 80022c8:	10880014 	ori	r2,r2,8192
 80022cc:	2908703a 	and	r4,r5,r4
 80022d0:	1880030d 	sth	r2,12(r3)
 80022d4:	19001915 	stw	r4,100(r3)
 80022d8:	81400217 	ldw	r5,8(r16)
 80022dc:	8009883a 	mov	r4,r16
 80022e0:	d9800404 	addi	r6,sp,16
 80022e4:	80069780 	call	8006978 <__sfvwrite_r>
 80022e8:	1000061e 	bne	r2,zero,8002304 <_puts_r+0xb0>
 80022ec:	00800284 	movi	r2,10
 80022f0:	dfc00917 	ldw	ra,36(sp)
 80022f4:	dc400817 	ldw	r17,32(sp)
 80022f8:	dc000717 	ldw	r16,28(sp)
 80022fc:	dec00a04 	addi	sp,sp,40
 8002300:	f800283a 	ret
 8002304:	00bfffc4 	movi	r2,-1
 8002308:	003ff906 	br	80022f0 <__alt_data_end+0xfc0022f0>

0800230c <puts>:
 800230c:	00820074 	movhi	r2,2049
 8002310:	10892304 	addi	r2,r2,9356
 8002314:	200b883a 	mov	r5,r4
 8002318:	11000017 	ldw	r4,0(r2)
 800231c:	80022541 	jmpi	8002254 <_puts_r>

08002320 <strlen>:
 8002320:	208000cc 	andi	r2,r4,3
 8002324:	10002026 	beq	r2,zero,80023a8 <strlen+0x88>
 8002328:	20800007 	ldb	r2,0(r4)
 800232c:	10002026 	beq	r2,zero,80023b0 <strlen+0x90>
 8002330:	2005883a 	mov	r2,r4
 8002334:	00000206 	br	8002340 <strlen+0x20>
 8002338:	10c00007 	ldb	r3,0(r2)
 800233c:	18001826 	beq	r3,zero,80023a0 <strlen+0x80>
 8002340:	10800044 	addi	r2,r2,1
 8002344:	10c000cc 	andi	r3,r2,3
 8002348:	183ffb1e 	bne	r3,zero,8002338 <__alt_data_end+0xfc002338>
 800234c:	10c00017 	ldw	r3,0(r2)
 8002350:	01ffbff4 	movhi	r7,65279
 8002354:	39ffbfc4 	addi	r7,r7,-257
 8002358:	00ca303a 	nor	r5,zero,r3
 800235c:	01a02074 	movhi	r6,32897
 8002360:	19c7883a 	add	r3,r3,r7
 8002364:	31a02004 	addi	r6,r6,-32640
 8002368:	1946703a 	and	r3,r3,r5
 800236c:	1986703a 	and	r3,r3,r6
 8002370:	1800091e 	bne	r3,zero,8002398 <strlen+0x78>
 8002374:	10800104 	addi	r2,r2,4
 8002378:	10c00017 	ldw	r3,0(r2)
 800237c:	19cb883a 	add	r5,r3,r7
 8002380:	00c6303a 	nor	r3,zero,r3
 8002384:	28c6703a 	and	r3,r5,r3
 8002388:	1986703a 	and	r3,r3,r6
 800238c:	183ff926 	beq	r3,zero,8002374 <__alt_data_end+0xfc002374>
 8002390:	00000106 	br	8002398 <strlen+0x78>
 8002394:	10800044 	addi	r2,r2,1
 8002398:	10c00007 	ldb	r3,0(r2)
 800239c:	183ffd1e 	bne	r3,zero,8002394 <__alt_data_end+0xfc002394>
 80023a0:	1105c83a 	sub	r2,r2,r4
 80023a4:	f800283a 	ret
 80023a8:	2005883a 	mov	r2,r4
 80023ac:	003fe706 	br	800234c <__alt_data_end+0xfc00234c>
 80023b0:	0005883a 	mov	r2,zero
 80023b4:	f800283a 	ret

080023b8 <___vfprintf_internal_r>:
 80023b8:	defeb604 	addi	sp,sp,-1320
 80023bc:	dfc14915 	stw	ra,1316(sp)
 80023c0:	ddc14715 	stw	r23,1308(sp)
 80023c4:	dd814615 	stw	r22,1304(sp)
 80023c8:	202f883a 	mov	r23,r4
 80023cc:	282d883a 	mov	r22,r5
 80023d0:	d9812a15 	stw	r6,1192(sp)
 80023d4:	d9c12d15 	stw	r7,1204(sp)
 80023d8:	df014815 	stw	fp,1312(sp)
 80023dc:	dd414515 	stw	r21,1300(sp)
 80023e0:	dd014415 	stw	r20,1296(sp)
 80023e4:	dcc14315 	stw	r19,1292(sp)
 80023e8:	dc814215 	stw	r18,1288(sp)
 80023ec:	dc414115 	stw	r17,1284(sp)
 80023f0:	dc014015 	stw	r16,1280(sp)
 80023f4:	80070380 	call	8007038 <_localeconv_r>
 80023f8:	10800017 	ldw	r2,0(r2)
 80023fc:	1009883a 	mov	r4,r2
 8002400:	d8813515 	stw	r2,1236(sp)
 8002404:	80023200 	call	8002320 <strlen>
 8002408:	d8813815 	stw	r2,1248(sp)
 800240c:	b8000226 	beq	r23,zero,8002418 <___vfprintf_internal_r+0x60>
 8002410:	b8800e17 	ldw	r2,56(r23)
 8002414:	10010526 	beq	r2,zero,800282c <___vfprintf_internal_r+0x474>
 8002418:	b0c0030b 	ldhu	r3,12(r22)
 800241c:	1908000c 	andi	r4,r3,8192
 8002420:	1805883a 	mov	r2,r3
 8002424:	2000071e 	bne	r4,zero,8002444 <___vfprintf_internal_r+0x8c>
 8002428:	b1001917 	ldw	r4,100(r22)
 800242c:	18880014 	ori	r2,r3,8192
 8002430:	00f7ffc4 	movi	r3,-8193
 8002434:	20c8703a 	and	r4,r4,r3
 8002438:	b080030d 	sth	r2,12(r22)
 800243c:	1007883a 	mov	r3,r2
 8002440:	b1001915 	stw	r4,100(r22)
 8002444:	1100020c 	andi	r4,r2,8
 8002448:	2000a826 	beq	r4,zero,80026ec <___vfprintf_internal_r+0x334>
 800244c:	b1000417 	ldw	r4,16(r22)
 8002450:	2000a626 	beq	r4,zero,80026ec <___vfprintf_internal_r+0x334>
 8002454:	1080068c 	andi	r2,r2,26
 8002458:	01000284 	movi	r4,10
 800245c:	1100ac26 	beq	r2,r4,8002710 <___vfprintf_internal_r+0x358>
 8002460:	d8c10e04 	addi	r3,sp,1080
 8002464:	d9010dc4 	addi	r4,sp,1079
 8002468:	d9400404 	addi	r5,sp,16
 800246c:	05020074 	movhi	r20,2049
 8002470:	1905c83a 	sub	r2,r3,r4
 8002474:	a501f784 	addi	r20,r20,2014
 8002478:	d8c12815 	stw	r3,1184(sp)
 800247c:	d9012915 	stw	r4,1188(sp)
 8002480:	d9411e15 	stw	r5,1144(sp)
 8002484:	d8012015 	stw	zero,1152(sp)
 8002488:	d8011f15 	stw	zero,1148(sp)
 800248c:	d8013315 	stw	zero,1228(sp)
 8002490:	d8013715 	stw	zero,1244(sp)
 8002494:	d8013915 	stw	zero,1252(sp)
 8002498:	d8013b15 	stw	zero,1260(sp)
 800249c:	d8013a15 	stw	zero,1256(sp)
 80024a0:	d8012f15 	stw	zero,1212(sp)
 80024a4:	2811883a 	mov	r8,r5
 80024a8:	d8813c15 	stw	r2,1264(sp)
 80024ac:	d8c12a17 	ldw	r3,1192(sp)
 80024b0:	18800007 	ldb	r2,0(r3)
 80024b4:	10021326 	beq	r2,zero,8002d04 <___vfprintf_internal_r+0x94c>
 80024b8:	00c00944 	movi	r3,37
 80024bc:	dc012a17 	ldw	r16,1192(sp)
 80024c0:	10c0021e 	bne	r2,r3,80024cc <___vfprintf_internal_r+0x114>
 80024c4:	00001606 	br	8002520 <___vfprintf_internal_r+0x168>
 80024c8:	10c08526 	beq	r2,r3,80026e0 <___vfprintf_internal_r+0x328>
 80024cc:	84000044 	addi	r16,r16,1
 80024d0:	80800007 	ldb	r2,0(r16)
 80024d4:	103ffc1e 	bne	r2,zero,80024c8 <__alt_data_end+0xfc0024c8>
 80024d8:	d9012a17 	ldw	r4,1192(sp)
 80024dc:	8123c83a 	sub	r17,r16,r4
 80024e0:	88000f26 	beq	r17,zero,8002520 <___vfprintf_internal_r+0x168>
 80024e4:	d8812a17 	ldw	r2,1192(sp)
 80024e8:	d8c12017 	ldw	r3,1152(sp)
 80024ec:	44400115 	stw	r17,4(r8)
 80024f0:	40800015 	stw	r2,0(r8)
 80024f4:	d8811f17 	ldw	r2,1148(sp)
 80024f8:	1c47883a 	add	r3,r3,r17
 80024fc:	d8c12015 	stw	r3,1152(sp)
 8002500:	10800044 	addi	r2,r2,1
 8002504:	d8811f15 	stw	r2,1148(sp)
 8002508:	00c001c4 	movi	r3,7
 800250c:	1880b516 	blt	r3,r2,80027e4 <___vfprintf_internal_r+0x42c>
 8002510:	42000204 	addi	r8,r8,8
 8002514:	d8c12f17 	ldw	r3,1212(sp)
 8002518:	1c47883a 	add	r3,r3,r17
 800251c:	d8c12f15 	stw	r3,1212(sp)
 8002520:	80800007 	ldb	r2,0(r16)
 8002524:	1000b626 	beq	r2,zero,8002800 <___vfprintf_internal_r+0x448>
 8002528:	80800044 	addi	r2,r16,1
 800252c:	84000047 	ldb	r16,1(r16)
 8002530:	0027883a 	mov	r19,zero
 8002534:	0039883a 	mov	fp,zero
 8002538:	dcc12b05 	stb	r19,1196(sp)
 800253c:	d8012785 	stb	zero,1182(sp)
 8002540:	027fffc4 	movi	r9,-1
 8002544:	d8012e15 	stw	zero,1208(sp)
 8002548:	04401604 	movi	r17,88
 800254c:	04800244 	movi	r18,9
 8002550:	da012a15 	stw	r8,1192(sp)
 8002554:	e027883a 	mov	r19,fp
 8002558:	17000044 	addi	fp,r2,1
 800255c:	80bff804 	addi	r2,r16,-32
 8002560:	88831236 	bltu	r17,r2,80031ac <___vfprintf_internal_r+0xdf4>
 8002564:	100490ba 	slli	r2,r2,2
 8002568:	01020034 	movhi	r4,2048
 800256c:	21095f04 	addi	r4,r4,9596
 8002570:	1105883a 	add	r2,r2,r4
 8002574:	10800017 	ldw	r2,0(r2)
 8002578:	1000683a 	jmp	r2
 800257c:	080030c8 	cmpgei	zero,at,195
 8002580:	080031ac 	andhi	zero,at,198
 8002584:	080031ac 	andhi	zero,at,198
 8002588:	080030e4 	muli	zero,at,195
 800258c:	080031ac 	andhi	zero,at,198
 8002590:	080031ac 	andhi	zero,at,198
 8002594:	080031ac 	andhi	zero,at,198
 8002598:	080031ac 	andhi	zero,at,198
 800259c:	080031ac 	andhi	zero,at,198
 80025a0:	080031ac 	andhi	zero,at,198
 80025a4:	080030f4 	orhi	zero,at,195
 80025a8:	0800311c 	xori	zero,at,196
 80025ac:	080031ac 	andhi	zero,at,198
 80025b0:	08002838 	rdprs	zero,at,160
 80025b4:	08002848 	cmpgei	zero,at,161
 80025b8:	080031ac 	andhi	zero,at,198
 80025bc:	08002898 	cmpnei	zero,at,162
 80025c0:	080028a8 	cmpgeui	zero,at,162
 80025c4:	080028a8 	cmpgeui	zero,at,162
 80025c8:	080028a8 	cmpgeui	zero,at,162
 80025cc:	080028a8 	cmpgeui	zero,at,162
 80025d0:	080028a8 	cmpgeui	zero,at,162
 80025d4:	080028a8 	cmpgeui	zero,at,162
 80025d8:	080028a8 	cmpgeui	zero,at,162
 80025dc:	080028a8 	cmpgeui	zero,at,162
 80025e0:	080028a8 	cmpgeui	zero,at,162
 80025e4:	080031ac 	andhi	zero,at,198
 80025e8:	080031ac 	andhi	zero,at,198
 80025ec:	080031ac 	andhi	zero,at,198
 80025f0:	080031ac 	andhi	zero,at,198
 80025f4:	080031ac 	andhi	zero,at,198
 80025f8:	080031ac 	andhi	zero,at,198
 80025fc:	080031ac 	andhi	zero,at,198
 8002600:	080031ac 	andhi	zero,at,198
 8002604:	080031ac 	andhi	zero,at,198
 8002608:	080031ac 	andhi	zero,at,198
 800260c:	080028ec 	andhi	zero,at,163
 8002610:	08002d0c 	andi	zero,at,180
 8002614:	080031ac 	andhi	zero,at,198
 8002618:	08002d0c 	andi	zero,at,180
 800261c:	080031ac 	andhi	zero,at,198
 8002620:	080031ac 	andhi	zero,at,198
 8002624:	080031ac 	andhi	zero,at,198
 8002628:	080031ac 	andhi	zero,at,198
 800262c:	08002db4 	orhi	zero,at,182
 8002630:	080031ac 	andhi	zero,at,198
 8002634:	080031ac 	andhi	zero,at,198
 8002638:	08002dc4 	addi	zero,at,183
 800263c:	080031ac 	andhi	zero,at,198
 8002640:	080031ac 	andhi	zero,at,198
 8002644:	080031ac 	andhi	zero,at,198
 8002648:	080031ac 	andhi	zero,at,198
 800264c:	080031ac 	andhi	zero,at,198
 8002650:	08002e08 	cmpgei	zero,at,184
 8002654:	080031ac 	andhi	zero,at,198
 8002658:	080031ac 	andhi	zero,at,198
 800265c:	08002e40 	call	8002e4 <__reset-0x77ffd1c>
 8002660:	080031ac 	andhi	zero,at,198
 8002664:	080031ac 	andhi	zero,at,198
 8002668:	080031ac 	andhi	zero,at,198
 800266c:	080031ac 	andhi	zero,at,198
 8002670:	080031ac 	andhi	zero,at,198
 8002674:	080031ac 	andhi	zero,at,198
 8002678:	080031ac 	andhi	zero,at,198
 800267c:	080031ac 	andhi	zero,at,198
 8002680:	080031ac 	andhi	zero,at,198
 8002684:	080031ac 	andhi	zero,at,198
 8002688:	0800307c 	xorhi	zero,at,193
 800268c:	08003028 	cmpgeui	zero,at,192
 8002690:	08002d0c 	andi	zero,at,180
 8002694:	08002d0c 	andi	zero,at,180
 8002698:	08002d0c 	andi	zero,at,180
 800269c:	0800306c 	andhi	zero,at,193
 80026a0:	08003028 	cmpgeui	zero,at,192
 80026a4:	080031ac 	andhi	zero,at,198
 80026a8:	080031ac 	andhi	zero,at,198
 80026ac:	08002f44 	addi	zero,at,189
 80026b0:	080031ac 	andhi	zero,at,198
 80026b4:	08002f5c 	xori	zero,at,189
 80026b8:	08002f9c 	xori	zero,at,190
 80026bc:	08002fdc 	xori	zero,at,191
 80026c0:	08002ea8 	cmpgeui	zero,at,186
 80026c4:	080031ac 	andhi	zero,at,198
 80026c8:	08003130 	cmpltui	zero,at,196
 80026cc:	080031ac 	andhi	zero,at,198
 80026d0:	08002eb8 	rdprs	zero,at,186
 80026d4:	080031ac 	andhi	zero,at,198
 80026d8:	080031ac 	andhi	zero,at,198
 80026dc:	08002ef8 	rdprs	zero,at,187
 80026e0:	d9412a17 	ldw	r5,1192(sp)
 80026e4:	8163c83a 	sub	r17,r16,r5
 80026e8:	003f7d06 	br	80024e0 <__alt_data_end+0xfc0024e0>
 80026ec:	b809883a 	mov	r4,r23
 80026f0:	b00b883a 	mov	r5,r22
 80026f4:	80044d80 	call	80044d8 <__swsetup_r>
 80026f8:	10002d1e 	bne	r2,zero,80027b0 <___vfprintf_internal_r+0x3f8>
 80026fc:	b0c0030b 	ldhu	r3,12(r22)
 8002700:	01000284 	movi	r4,10
 8002704:	1805883a 	mov	r2,r3
 8002708:	1080068c 	andi	r2,r2,26
 800270c:	113f541e 	bne	r2,r4,8002460 <__alt_data_end+0xfc002460>
 8002710:	b080038b 	ldhu	r2,14(r22)
 8002714:	113fffcc 	andi	r4,r2,65535
 8002718:	2120001c 	xori	r4,r4,32768
 800271c:	21200004 	addi	r4,r4,-32768
 8002720:	203f4f16 	blt	r4,zero,8002460 <__alt_data_end+0xfc002460>
 8002724:	b2c01917 	ldw	r11,100(r22)
 8002728:	b2800717 	ldw	r10,28(r22)
 800272c:	b2400917 	ldw	r9,36(r22)
 8002730:	d9812a17 	ldw	r6,1192(sp)
 8002734:	d9c12d17 	ldw	r7,1204(sp)
 8002738:	02010004 	movi	r8,1024
 800273c:	18ffff4c 	andi	r3,r3,65533
 8002740:	d881078d 	sth	r2,1054(sp)
 8002744:	b809883a 	mov	r4,r23
 8002748:	d8800404 	addi	r2,sp,16
 800274c:	d9410404 	addi	r5,sp,1040
 8002750:	d8c1070d 	sth	r3,1052(sp)
 8002754:	dac11d15 	stw	r11,1140(sp)
 8002758:	da810b15 	stw	r10,1068(sp)
 800275c:	da410d15 	stw	r9,1076(sp)
 8002760:	d8810415 	stw	r2,1040(sp)
 8002764:	d8810815 	stw	r2,1056(sp)
 8002768:	da010615 	stw	r8,1048(sp)
 800276c:	da010915 	stw	r8,1060(sp)
 8002770:	d8010a15 	stw	zero,1064(sp)
 8002774:	80023b80 	call	80023b8 <___vfprintf_internal_r>
 8002778:	1021883a 	mov	r16,r2
 800277c:	10000416 	blt	r2,zero,8002790 <___vfprintf_internal_r+0x3d8>
 8002780:	b809883a 	mov	r4,r23
 8002784:	d9410404 	addi	r5,sp,1040
 8002788:	8005f580 	call	8005f58 <_fflush_r>
 800278c:	1007301e 	bne	r2,zero,8004450 <___vfprintf_internal_r+0x2098>
 8002790:	d881070b 	ldhu	r2,1052(sp)
 8002794:	1080100c 	andi	r2,r2,64
 8002798:	10000326 	beq	r2,zero,80027a8 <___vfprintf_internal_r+0x3f0>
 800279c:	b080030b 	ldhu	r2,12(r22)
 80027a0:	10801014 	ori	r2,r2,64
 80027a4:	b080030d 	sth	r2,12(r22)
 80027a8:	8005883a 	mov	r2,r16
 80027ac:	00000106 	br	80027b4 <___vfprintf_internal_r+0x3fc>
 80027b0:	00bfffc4 	movi	r2,-1
 80027b4:	dfc14917 	ldw	ra,1316(sp)
 80027b8:	df014817 	ldw	fp,1312(sp)
 80027bc:	ddc14717 	ldw	r23,1308(sp)
 80027c0:	dd814617 	ldw	r22,1304(sp)
 80027c4:	dd414517 	ldw	r21,1300(sp)
 80027c8:	dd014417 	ldw	r20,1296(sp)
 80027cc:	dcc14317 	ldw	r19,1292(sp)
 80027d0:	dc814217 	ldw	r18,1288(sp)
 80027d4:	dc414117 	ldw	r17,1284(sp)
 80027d8:	dc014017 	ldw	r16,1280(sp)
 80027dc:	dec14a04 	addi	sp,sp,1320
 80027e0:	f800283a 	ret
 80027e4:	b809883a 	mov	r4,r23
 80027e8:	b00b883a 	mov	r5,r22
 80027ec:	d9811e04 	addi	r6,sp,1144
 80027f0:	80099600 	call	8009960 <__sprint_r>
 80027f4:	1000081e 	bne	r2,zero,8002818 <___vfprintf_internal_r+0x460>
 80027f8:	da000404 	addi	r8,sp,16
 80027fc:	003f4506 	br	8002514 <__alt_data_end+0xfc002514>
 8002800:	d8812017 	ldw	r2,1152(sp)
 8002804:	10000426 	beq	r2,zero,8002818 <___vfprintf_internal_r+0x460>
 8002808:	b809883a 	mov	r4,r23
 800280c:	b00b883a 	mov	r5,r22
 8002810:	d9811e04 	addi	r6,sp,1144
 8002814:	80099600 	call	8009960 <__sprint_r>
 8002818:	b080030b 	ldhu	r2,12(r22)
 800281c:	1080100c 	andi	r2,r2,64
 8002820:	103fe31e 	bne	r2,zero,80027b0 <__alt_data_end+0xfc0027b0>
 8002824:	d8812f17 	ldw	r2,1212(sp)
 8002828:	003fe206 	br	80027b4 <__alt_data_end+0xfc0027b4>
 800282c:	b809883a 	mov	r4,r23
 8002830:	80065140 	call	8006514 <__sinit>
 8002834:	003ef806 	br	8002418 <__alt_data_end+0xfc002418>
 8002838:	e005883a 	mov	r2,fp
 800283c:	9cc00114 	ori	r19,r19,4
 8002840:	e4000007 	ldb	r16,0(fp)
 8002844:	003f4406 	br	8002558 <__alt_data_end+0xfc002558>
 8002848:	e4000007 	ldb	r16,0(fp)
 800284c:	01000a84 	movi	r4,42
 8002850:	e0800044 	addi	r2,fp,1
 8002854:	8106f626 	beq	r16,r4,8004430 <___vfprintf_internal_r+0x2078>
 8002858:	857ff404 	addi	r21,r16,-48
 800285c:	1039883a 	mov	fp,r2
 8002860:	0013883a 	mov	r9,zero
 8002864:	957f3d36 	bltu	r18,r21,800255c <__alt_data_end+0xfc00255c>
 8002868:	0009883a 	mov	r4,zero
 800286c:	01400284 	movi	r5,10
 8002870:	80021a40 	call	80021a4 <__mulsi3>
 8002874:	e4000007 	ldb	r16,0(fp)
 8002878:	a889883a 	add	r4,r21,r2
 800287c:	e7000044 	addi	fp,fp,1
 8002880:	857ff404 	addi	r21,r16,-48
 8002884:	957ff92e 	bgeu	r18,r21,800286c <__alt_data_end+0xfc00286c>
 8002888:	2013883a 	mov	r9,r4
 800288c:	203f330e 	bge	r4,zero,800255c <__alt_data_end+0xfc00255c>
 8002890:	027fffc4 	movi	r9,-1
 8002894:	003f3106 	br	800255c <__alt_data_end+0xfc00255c>
 8002898:	9cc02014 	ori	r19,r19,128
 800289c:	e005883a 	mov	r2,fp
 80028a0:	e4000007 	ldb	r16,0(fp)
 80028a4:	003f2c06 	br	8002558 <__alt_data_end+0xfc002558>
 80028a8:	857ff404 	addi	r21,r16,-48
 80028ac:	d8012e15 	stw	zero,1208(sp)
 80028b0:	e021883a 	mov	r16,fp
 80028b4:	0009883a 	mov	r4,zero
 80028b8:	da412c15 	stw	r9,1200(sp)
 80028bc:	01400284 	movi	r5,10
 80028c0:	80021a40 	call	80021a4 <__mulsi3>
 80028c4:	81400007 	ldb	r5,0(r16)
 80028c8:	1549883a 	add	r4,r2,r21
 80028cc:	e7000044 	addi	fp,fp,1
 80028d0:	2d7ff404 	addi	r21,r5,-48
 80028d4:	e021883a 	mov	r16,fp
 80028d8:	957ff82e 	bgeu	r18,r21,80028bc <__alt_data_end+0xfc0028bc>
 80028dc:	2821883a 	mov	r16,r5
 80028e0:	d9012e15 	stw	r4,1208(sp)
 80028e4:	da412c17 	ldw	r9,1200(sp)
 80028e8:	003f1c06 	br	800255c <__alt_data_end+0xfc00255c>
 80028ec:	da012a17 	ldw	r8,1192(sp)
 80028f0:	df012a15 	stw	fp,1192(sp)
 80028f4:	9839883a 	mov	fp,r19
 80028f8:	dcc12b03 	ldbu	r19,1196(sp)
 80028fc:	e7000414 	ori	fp,fp,16
 8002900:	e080080c 	andi	r2,fp,32
 8002904:	dcc12785 	stb	r19,1182(sp)
 8002908:	d8c12d17 	ldw	r3,1204(sp)
 800290c:	1001ce26 	beq	r2,zero,8003048 <___vfprintf_internal_r+0xc90>
 8002910:	d9012d17 	ldw	r4,1204(sp)
 8002914:	18800117 	ldw	r2,4(r3)
 8002918:	1c800017 	ldw	r18,0(r3)
 800291c:	21000204 	addi	r4,r4,8
 8002920:	d9012d15 	stw	r4,1204(sp)
 8002924:	102b883a 	mov	r21,r2
 8002928:	10044916 	blt	r2,zero,8003a50 <___vfprintf_internal_r+0x1698>
 800292c:	dcc12783 	ldbu	r19,1182(sp)
 8002930:	da413215 	stw	r9,1224(sp)
 8002934:	00800044 	movi	r2,1
 8002938:	9546b03a 	or	r3,r18,r21
 800293c:	48000216 	blt	r9,zero,8002948 <___vfprintf_internal_r+0x590>
 8002940:	013fdfc4 	movi	r4,-129
 8002944:	e138703a 	and	fp,fp,r4
 8002948:	1802251e 	bne	r3,zero,80031e0 <___vfprintf_internal_r+0xe28>
 800294c:	48031726 	beq	r9,zero,80035ac <___vfprintf_internal_r+0x11f4>
 8002950:	10803fcc 	andi	r2,r2,255
 8002954:	00c00044 	movi	r3,1
 8002958:	10c24526 	beq	r2,r3,8003270 <___vfprintf_internal_r+0xeb8>
 800295c:	00c00084 	movi	r3,2
 8002960:	10c33426 	beq	r2,r3,8003634 <___vfprintf_internal_r+0x127c>
 8002964:	d8c10e04 	addi	r3,sp,1080
 8002968:	9008d0fa 	srli	r4,r18,3
 800296c:	a80a977a 	slli	r5,r21,29
 8002970:	a82ad0fa 	srli	r21,r21,3
 8002974:	948001cc 	andi	r18,r18,7
 8002978:	90800c04 	addi	r2,r18,48
 800297c:	18ffffc4 	addi	r3,r3,-1
 8002980:	2924b03a 	or	r18,r5,r4
 8002984:	18800005 	stb	r2,0(r3)
 8002988:	9548b03a 	or	r4,r18,r21
 800298c:	203ff61e 	bne	r4,zero,8002968 <__alt_data_end+0xfc002968>
 8002990:	e100004c 	andi	r4,fp,1
 8002994:	d8c13115 	stw	r3,1220(sp)
 8002998:	20039a1e 	bne	r4,zero,8003804 <___vfprintf_internal_r+0x144c>
 800299c:	d8812817 	ldw	r2,1184(sp)
 80029a0:	10e3c83a 	sub	r17,r2,r3
 80029a4:	8805883a 	mov	r2,r17
 80029a8:	8a40010e 	bge	r17,r9,80029b0 <___vfprintf_internal_r+0x5f8>
 80029ac:	4805883a 	mov	r2,r9
 80029b0:	d8812b15 	stw	r2,1196(sp)
 80029b4:	d8013415 	stw	zero,1232(sp)
 80029b8:	98803fcc 	andi	r2,r19,255
 80029bc:	1080201c 	xori	r2,r2,128
 80029c0:	10bfe004 	addi	r2,r2,-128
 80029c4:	10000326 	beq	r2,zero,80029d4 <___vfprintf_internal_r+0x61c>
 80029c8:	d8c12b17 	ldw	r3,1196(sp)
 80029cc:	18c00044 	addi	r3,r3,1
 80029d0:	d8c12b15 	stw	r3,1196(sp)
 80029d4:	e0c0008c 	andi	r3,fp,2
 80029d8:	d8c12c15 	stw	r3,1200(sp)
 80029dc:	18000326 	beq	r3,zero,80029ec <___vfprintf_internal_r+0x634>
 80029e0:	d8c12b17 	ldw	r3,1196(sp)
 80029e4:	18c00084 	addi	r3,r3,2
 80029e8:	d8c12b15 	stw	r3,1196(sp)
 80029ec:	e0c0210c 	andi	r3,fp,132
 80029f0:	d8c13015 	stw	r3,1216(sp)
 80029f4:	1801f81e 	bne	r3,zero,80031d8 <___vfprintf_internal_r+0xe20>
 80029f8:	d9012e17 	ldw	r4,1208(sp)
 80029fc:	d8c12b17 	ldw	r3,1196(sp)
 8002a00:	20ebc83a 	sub	r21,r4,r3
 8002a04:	0541f40e 	bge	zero,r21,80031d8 <___vfprintf_internal_r+0xe20>
 8002a08:	02400404 	movi	r9,16
 8002a0c:	d8c12017 	ldw	r3,1152(sp)
 8002a10:	d8811f17 	ldw	r2,1148(sp)
 8002a14:	4d45750e 	bge	r9,r21,8003fec <___vfprintf_internal_r+0x1c34>
 8002a18:	01420074 	movhi	r5,2049
 8002a1c:	2941fb84 	addi	r5,r5,2030
 8002a20:	d9413615 	stw	r5,1240(sp)
 8002a24:	4827883a 	mov	r19,r9
 8002a28:	048001c4 	movi	r18,7
 8002a2c:	00000306 	br	8002a3c <___vfprintf_internal_r+0x684>
 8002a30:	ad7ffc04 	addi	r21,r21,-16
 8002a34:	42000204 	addi	r8,r8,8
 8002a38:	9d40130e 	bge	r19,r21,8002a88 <___vfprintf_internal_r+0x6d0>
 8002a3c:	01020074 	movhi	r4,2049
 8002a40:	18c00404 	addi	r3,r3,16
 8002a44:	10800044 	addi	r2,r2,1
 8002a48:	2101fb84 	addi	r4,r4,2030
 8002a4c:	41000015 	stw	r4,0(r8)
 8002a50:	44c00115 	stw	r19,4(r8)
 8002a54:	d8c12015 	stw	r3,1152(sp)
 8002a58:	d8811f15 	stw	r2,1148(sp)
 8002a5c:	90bff40e 	bge	r18,r2,8002a30 <__alt_data_end+0xfc002a30>
 8002a60:	b809883a 	mov	r4,r23
 8002a64:	b00b883a 	mov	r5,r22
 8002a68:	d9811e04 	addi	r6,sp,1144
 8002a6c:	80099600 	call	8009960 <__sprint_r>
 8002a70:	103f691e 	bne	r2,zero,8002818 <__alt_data_end+0xfc002818>
 8002a74:	ad7ffc04 	addi	r21,r21,-16
 8002a78:	d8c12017 	ldw	r3,1152(sp)
 8002a7c:	d8811f17 	ldw	r2,1148(sp)
 8002a80:	da000404 	addi	r8,sp,16
 8002a84:	9d7fed16 	blt	r19,r21,8002a3c <__alt_data_end+0xfc002a3c>
 8002a88:	d9413617 	ldw	r5,1240(sp)
 8002a8c:	a8c7883a 	add	r3,r21,r3
 8002a90:	10800044 	addi	r2,r2,1
 8002a94:	41400015 	stw	r5,0(r8)
 8002a98:	45400115 	stw	r21,4(r8)
 8002a9c:	d8c12015 	stw	r3,1152(sp)
 8002aa0:	d8811f15 	stw	r2,1148(sp)
 8002aa4:	010001c4 	movi	r4,7
 8002aa8:	20832b16 	blt	r4,r2,8003758 <___vfprintf_internal_r+0x13a0>
 8002aac:	d8812787 	ldb	r2,1182(sp)
 8002ab0:	42000204 	addi	r8,r8,8
 8002ab4:	10000c26 	beq	r2,zero,8002ae8 <___vfprintf_internal_r+0x730>
 8002ab8:	d8811f17 	ldw	r2,1148(sp)
 8002abc:	d9012784 	addi	r4,sp,1182
 8002ac0:	18c00044 	addi	r3,r3,1
 8002ac4:	10800044 	addi	r2,r2,1
 8002ac8:	41000015 	stw	r4,0(r8)
 8002acc:	01000044 	movi	r4,1
 8002ad0:	41000115 	stw	r4,4(r8)
 8002ad4:	d8c12015 	stw	r3,1152(sp)
 8002ad8:	d8811f15 	stw	r2,1148(sp)
 8002adc:	010001c4 	movi	r4,7
 8002ae0:	2082c416 	blt	r4,r2,80035f4 <___vfprintf_internal_r+0x123c>
 8002ae4:	42000204 	addi	r8,r8,8
 8002ae8:	d8812c17 	ldw	r2,1200(sp)
 8002aec:	10000c26 	beq	r2,zero,8002b20 <___vfprintf_internal_r+0x768>
 8002af0:	d8811f17 	ldw	r2,1148(sp)
 8002af4:	d9012704 	addi	r4,sp,1180
 8002af8:	18c00084 	addi	r3,r3,2
 8002afc:	10800044 	addi	r2,r2,1
 8002b00:	41000015 	stw	r4,0(r8)
 8002b04:	01000084 	movi	r4,2
 8002b08:	41000115 	stw	r4,4(r8)
 8002b0c:	d8c12015 	stw	r3,1152(sp)
 8002b10:	d8811f15 	stw	r2,1148(sp)
 8002b14:	010001c4 	movi	r4,7
 8002b18:	2082be16 	blt	r4,r2,8003614 <___vfprintf_internal_r+0x125c>
 8002b1c:	42000204 	addi	r8,r8,8
 8002b20:	d9013017 	ldw	r4,1216(sp)
 8002b24:	00802004 	movi	r2,128
 8002b28:	20822026 	beq	r4,r2,80033ac <___vfprintf_internal_r+0xff4>
 8002b2c:	d9413217 	ldw	r5,1224(sp)
 8002b30:	2c67c83a 	sub	r19,r5,r17
 8002b34:	04c0260e 	bge	zero,r19,8002bd0 <___vfprintf_internal_r+0x818>
 8002b38:	05400404 	movi	r21,16
 8002b3c:	d8811f17 	ldw	r2,1148(sp)
 8002b40:	acc4720e 	bge	r21,r19,8003d0c <___vfprintf_internal_r+0x1954>
 8002b44:	01420074 	movhi	r5,2049
 8002b48:	2941f784 	addi	r5,r5,2014
 8002b4c:	d9412c15 	stw	r5,1200(sp)
 8002b50:	048001c4 	movi	r18,7
 8002b54:	00000306 	br	8002b64 <___vfprintf_internal_r+0x7ac>
 8002b58:	9cfffc04 	addi	r19,r19,-16
 8002b5c:	42000204 	addi	r8,r8,8
 8002b60:	acc0110e 	bge	r21,r19,8002ba8 <___vfprintf_internal_r+0x7f0>
 8002b64:	18c00404 	addi	r3,r3,16
 8002b68:	10800044 	addi	r2,r2,1
 8002b6c:	45000015 	stw	r20,0(r8)
 8002b70:	45400115 	stw	r21,4(r8)
 8002b74:	d8c12015 	stw	r3,1152(sp)
 8002b78:	d8811f15 	stw	r2,1148(sp)
 8002b7c:	90bff60e 	bge	r18,r2,8002b58 <__alt_data_end+0xfc002b58>
 8002b80:	b809883a 	mov	r4,r23
 8002b84:	b00b883a 	mov	r5,r22
 8002b88:	d9811e04 	addi	r6,sp,1144
 8002b8c:	80099600 	call	8009960 <__sprint_r>
 8002b90:	103f211e 	bne	r2,zero,8002818 <__alt_data_end+0xfc002818>
 8002b94:	9cfffc04 	addi	r19,r19,-16
 8002b98:	d8c12017 	ldw	r3,1152(sp)
 8002b9c:	d8811f17 	ldw	r2,1148(sp)
 8002ba0:	da000404 	addi	r8,sp,16
 8002ba4:	acffef16 	blt	r21,r19,8002b64 <__alt_data_end+0xfc002b64>
 8002ba8:	d9012c17 	ldw	r4,1200(sp)
 8002bac:	1cc7883a 	add	r3,r3,r19
 8002bb0:	10800044 	addi	r2,r2,1
 8002bb4:	41000015 	stw	r4,0(r8)
 8002bb8:	44c00115 	stw	r19,4(r8)
 8002bbc:	d8c12015 	stw	r3,1152(sp)
 8002bc0:	d8811f15 	stw	r2,1148(sp)
 8002bc4:	010001c4 	movi	r4,7
 8002bc8:	20828216 	blt	r4,r2,80035d4 <___vfprintf_internal_r+0x121c>
 8002bcc:	42000204 	addi	r8,r8,8
 8002bd0:	e080400c 	andi	r2,fp,256
 8002bd4:	1001ac1e 	bne	r2,zero,8003288 <___vfprintf_internal_r+0xed0>
 8002bd8:	d8811f17 	ldw	r2,1148(sp)
 8002bdc:	d9413117 	ldw	r5,1220(sp)
 8002be0:	1c47883a 	add	r3,r3,r17
 8002be4:	10800044 	addi	r2,r2,1
 8002be8:	41400015 	stw	r5,0(r8)
 8002bec:	44400115 	stw	r17,4(r8)
 8002bf0:	d8c12015 	stw	r3,1152(sp)
 8002bf4:	d8811f15 	stw	r2,1148(sp)
 8002bf8:	010001c4 	movi	r4,7
 8002bfc:	20825d16 	blt	r4,r2,8003574 <___vfprintf_internal_r+0x11bc>
 8002c00:	42000204 	addi	r8,r8,8
 8002c04:	e080010c 	andi	r2,fp,4
 8002c08:	10003126 	beq	r2,zero,8002cd0 <___vfprintf_internal_r+0x918>
 8002c0c:	d8812e17 	ldw	r2,1208(sp)
 8002c10:	d9012b17 	ldw	r4,1196(sp)
 8002c14:	1121c83a 	sub	r16,r2,r4
 8002c18:	04002d0e 	bge	zero,r16,8002cd0 <___vfprintf_internal_r+0x918>
 8002c1c:	04400404 	movi	r17,16
 8002c20:	d8811f17 	ldw	r2,1148(sp)
 8002c24:	8c05340e 	bge	r17,r16,80040f8 <___vfprintf_internal_r+0x1d40>
 8002c28:	01020074 	movhi	r4,2049
 8002c2c:	2101fb84 	addi	r4,r4,2030
 8002c30:	d9013615 	stw	r4,1240(sp)
 8002c34:	048001c4 	movi	r18,7
 8002c38:	00000306 	br	8002c48 <___vfprintf_internal_r+0x890>
 8002c3c:	843ffc04 	addi	r16,r16,-16
 8002c40:	42000204 	addi	r8,r8,8
 8002c44:	8c00130e 	bge	r17,r16,8002c94 <___vfprintf_internal_r+0x8dc>
 8002c48:	01420074 	movhi	r5,2049
 8002c4c:	18c00404 	addi	r3,r3,16
 8002c50:	10800044 	addi	r2,r2,1
 8002c54:	2941fb84 	addi	r5,r5,2030
 8002c58:	41400015 	stw	r5,0(r8)
 8002c5c:	44400115 	stw	r17,4(r8)
 8002c60:	d8c12015 	stw	r3,1152(sp)
 8002c64:	d8811f15 	stw	r2,1148(sp)
 8002c68:	90bff40e 	bge	r18,r2,8002c3c <__alt_data_end+0xfc002c3c>
 8002c6c:	b809883a 	mov	r4,r23
 8002c70:	b00b883a 	mov	r5,r22
 8002c74:	d9811e04 	addi	r6,sp,1144
 8002c78:	80099600 	call	8009960 <__sprint_r>
 8002c7c:	103ee61e 	bne	r2,zero,8002818 <__alt_data_end+0xfc002818>
 8002c80:	843ffc04 	addi	r16,r16,-16
 8002c84:	d8c12017 	ldw	r3,1152(sp)
 8002c88:	d8811f17 	ldw	r2,1148(sp)
 8002c8c:	da000404 	addi	r8,sp,16
 8002c90:	8c3fed16 	blt	r17,r16,8002c48 <__alt_data_end+0xfc002c48>
 8002c94:	d9013617 	ldw	r4,1240(sp)
 8002c98:	1c07883a 	add	r3,r3,r16
 8002c9c:	10800044 	addi	r2,r2,1
 8002ca0:	41000015 	stw	r4,0(r8)
 8002ca4:	44000115 	stw	r16,4(r8)
 8002ca8:	d8c12015 	stw	r3,1152(sp)
 8002cac:	d8811f15 	stw	r2,1148(sp)
 8002cb0:	010001c4 	movi	r4,7
 8002cb4:	2080060e 	bge	r4,r2,8002cd0 <___vfprintf_internal_r+0x918>
 8002cb8:	b809883a 	mov	r4,r23
 8002cbc:	b00b883a 	mov	r5,r22
 8002cc0:	d9811e04 	addi	r6,sp,1144
 8002cc4:	80099600 	call	8009960 <__sprint_r>
 8002cc8:	103ed31e 	bne	r2,zero,8002818 <__alt_data_end+0xfc002818>
 8002ccc:	d8c12017 	ldw	r3,1152(sp)
 8002cd0:	df012b17 	ldw	fp,1196(sp)
 8002cd4:	d9412e17 	ldw	r5,1208(sp)
 8002cd8:	e140010e 	bge	fp,r5,8002ce0 <___vfprintf_internal_r+0x928>
 8002cdc:	2839883a 	mov	fp,r5
 8002ce0:	d8812f17 	ldw	r2,1212(sp)
 8002ce4:	1705883a 	add	r2,r2,fp
 8002ce8:	d8812f15 	stw	r2,1212(sp)
 8002cec:	1802291e 	bne	r3,zero,8003594 <___vfprintf_internal_r+0x11dc>
 8002cf0:	d8c12a17 	ldw	r3,1192(sp)
 8002cf4:	d8011f15 	stw	zero,1148(sp)
 8002cf8:	da000404 	addi	r8,sp,16
 8002cfc:	18800007 	ldb	r2,0(r3)
 8002d00:	103ded1e 	bne	r2,zero,80024b8 <__alt_data_end+0xfc0024b8>
 8002d04:	dc012a17 	ldw	r16,1192(sp)
 8002d08:	003e0506 	br	8002520 <__alt_data_end+0xfc002520>
 8002d0c:	d9012d17 	ldw	r4,1204(sp)
 8002d10:	d9412d17 	ldw	r5,1204(sp)
 8002d14:	da012a17 	ldw	r8,1192(sp)
 8002d18:	21000017 	ldw	r4,0(r4)
 8002d1c:	29400117 	ldw	r5,4(r5)
 8002d20:	df012a15 	stw	fp,1192(sp)
 8002d24:	9839883a 	mov	fp,r19
 8002d28:	dcc12b03 	ldbu	r19,1196(sp)
 8002d2c:	d9013715 	stw	r4,1244(sp)
 8002d30:	d9413915 	stw	r5,1252(sp)
 8002d34:	da013f15 	stw	r8,1276(sp)
 8002d38:	da413e15 	stw	r9,1272(sp)
 8002d3c:	dcc12785 	stb	r19,1182(sp)
 8002d40:	80095bc0 	call	80095bc <__fpclassifyd>
 8002d44:	d8c12d17 	ldw	r3,1204(sp)
 8002d48:	04400044 	movi	r17,1
 8002d4c:	da013f17 	ldw	r8,1276(sp)
 8002d50:	1c800204 	addi	r18,r3,8
 8002d54:	da413e17 	ldw	r9,1272(sp)
 8002d58:	d9013717 	ldw	r4,1244(sp)
 8002d5c:	d9413917 	ldw	r5,1252(sp)
 8002d60:	1443451e 	bne	r2,r17,8003a78 <___vfprintf_internal_r+0x16c0>
 8002d64:	000d883a 	mov	r6,zero
 8002d68:	000f883a 	mov	r7,zero
 8002d6c:	800cd680 	call	800cd68 <__ledf2>
 8002d70:	da013f17 	ldw	r8,1276(sp)
 8002d74:	1004fe16 	blt	r2,zero,8004170 <___vfprintf_internal_r+0x1db8>
 8002d78:	dcc12783 	ldbu	r19,1182(sp)
 8002d7c:	008011c4 	movi	r2,71
 8002d80:	14045d0e 	bge	r2,r16,8003ef8 <___vfprintf_internal_r+0x1b40>
 8002d84:	01420074 	movhi	r5,2049
 8002d88:	2941e804 	addi	r5,r5,1952
 8002d8c:	d9413115 	stw	r5,1220(sp)
 8002d90:	00c000c4 	movi	r3,3
 8002d94:	00bfdfc4 	movi	r2,-129
 8002d98:	d8c12b15 	stw	r3,1196(sp)
 8002d9c:	e0b8703a 	and	fp,fp,r2
 8002da0:	dc812d15 	stw	r18,1204(sp)
 8002da4:	1823883a 	mov	r17,r3
 8002da8:	d8013215 	stw	zero,1224(sp)
 8002dac:	d8013415 	stw	zero,1232(sp)
 8002db0:	003f0106 	br	80029b8 <__alt_data_end+0xfc0029b8>
 8002db4:	9cc00214 	ori	r19,r19,8
 8002db8:	e005883a 	mov	r2,fp
 8002dbc:	e4000007 	ldb	r16,0(fp)
 8002dc0:	003de506 	br	8002558 <__alt_data_end+0xfc002558>
 8002dc4:	da012a17 	ldw	r8,1192(sp)
 8002dc8:	df012a15 	stw	fp,1192(sp)
 8002dcc:	9f000414 	ori	fp,r19,16
 8002dd0:	e0c0080c 	andi	r3,fp,32
 8002dd4:	d8812d17 	ldw	r2,1204(sp)
 8002dd8:	18007626 	beq	r3,zero,8002fb4 <___vfprintf_internal_r+0xbfc>
 8002ddc:	d9412d17 	ldw	r5,1204(sp)
 8002de0:	14800017 	ldw	r18,0(r2)
 8002de4:	15400117 	ldw	r21,4(r2)
 8002de8:	29400204 	addi	r5,r5,8
 8002dec:	d9412d15 	stw	r5,1204(sp)
 8002df0:	0005883a 	mov	r2,zero
 8002df4:	9546b03a 	or	r3,r18,r21
 8002df8:	d8012785 	stb	zero,1182(sp)
 8002dfc:	da413215 	stw	r9,1224(sp)
 8002e00:	0027883a 	mov	r19,zero
 8002e04:	003ecd06 	br	800293c <__alt_data_end+0xfc00293c>
 8002e08:	da012a17 	ldw	r8,1192(sp)
 8002e0c:	df012a15 	stw	fp,1192(sp)
 8002e10:	9f000414 	ori	fp,r19,16
 8002e14:	e0c0080c 	andi	r3,fp,32
 8002e18:	d8812d17 	ldw	r2,1204(sp)
 8002e1c:	18002c26 	beq	r3,zero,8002ed0 <___vfprintf_internal_r+0xb18>
 8002e20:	d9012d17 	ldw	r4,1204(sp)
 8002e24:	14800017 	ldw	r18,0(r2)
 8002e28:	15400117 	ldw	r21,4(r2)
 8002e2c:	21000204 	addi	r4,r4,8
 8002e30:	d9012d15 	stw	r4,1204(sp)
 8002e34:	00800044 	movi	r2,1
 8002e38:	9546b03a 	or	r3,r18,r21
 8002e3c:	003fee06 	br	8002df8 <__alt_data_end+0xfc002df8>
 8002e40:	da012a17 	ldw	r8,1192(sp)
 8002e44:	df012a15 	stw	fp,1192(sp)
 8002e48:	9839883a 	mov	fp,r19
 8002e4c:	dcc12b03 	ldbu	r19,1196(sp)
 8002e50:	01420074 	movhi	r5,2049
 8002e54:	2941eb04 	addi	r5,r5,1964
 8002e58:	dcc12785 	stb	r19,1182(sp)
 8002e5c:	d9413b15 	stw	r5,1260(sp)
 8002e60:	e0c0080c 	andi	r3,fp,32
 8002e64:	d8812d17 	ldw	r2,1204(sp)
 8002e68:	18002e26 	beq	r3,zero,8002f24 <___vfprintf_internal_r+0xb6c>
 8002e6c:	d9412d17 	ldw	r5,1204(sp)
 8002e70:	14800017 	ldw	r18,0(r2)
 8002e74:	15400117 	ldw	r21,4(r2)
 8002e78:	29400204 	addi	r5,r5,8
 8002e7c:	d9412d15 	stw	r5,1204(sp)
 8002e80:	e080004c 	andi	r2,fp,1
 8002e84:	10025c26 	beq	r2,zero,80037f8 <___vfprintf_internal_r+0x1440>
 8002e88:	9546b03a 	or	r3,r18,r21
 8002e8c:	18038f26 	beq	r3,zero,8003ccc <___vfprintf_internal_r+0x1914>
 8002e90:	00800c04 	movi	r2,48
 8002e94:	d8812705 	stb	r2,1180(sp)
 8002e98:	dc012745 	stb	r16,1181(sp)
 8002e9c:	e7000094 	ori	fp,fp,2
 8002ea0:	00800084 	movi	r2,2
 8002ea4:	003fd406 	br	8002df8 <__alt_data_end+0xfc002df8>
 8002ea8:	9cc00814 	ori	r19,r19,32
 8002eac:	e005883a 	mov	r2,fp
 8002eb0:	e4000007 	ldb	r16,0(fp)
 8002eb4:	003da806 	br	8002558 <__alt_data_end+0xfc002558>
 8002eb8:	da012a17 	ldw	r8,1192(sp)
 8002ebc:	df012a15 	stw	fp,1192(sp)
 8002ec0:	9839883a 	mov	fp,r19
 8002ec4:	e0c0080c 	andi	r3,fp,32
 8002ec8:	d8812d17 	ldw	r2,1204(sp)
 8002ecc:	183fd41e 	bne	r3,zero,8002e20 <__alt_data_end+0xfc002e20>
 8002ed0:	e0c0040c 	andi	r3,fp,16
 8002ed4:	18035f26 	beq	r3,zero,8003c54 <___vfprintf_internal_r+0x189c>
 8002ed8:	d9412d17 	ldw	r5,1204(sp)
 8002edc:	14800017 	ldw	r18,0(r2)
 8002ee0:	002b883a 	mov	r21,zero
 8002ee4:	29400104 	addi	r5,r5,4
 8002ee8:	d9412d15 	stw	r5,1204(sp)
 8002eec:	00800044 	movi	r2,1
 8002ef0:	9007883a 	mov	r3,r18
 8002ef4:	003fc006 	br	8002df8 <__alt_data_end+0xfc002df8>
 8002ef8:	da012a17 	ldw	r8,1192(sp)
 8002efc:	df012a15 	stw	fp,1192(sp)
 8002f00:	9839883a 	mov	fp,r19
 8002f04:	dcc12b03 	ldbu	r19,1196(sp)
 8002f08:	01020074 	movhi	r4,2049
 8002f0c:	2101f004 	addi	r4,r4,1984
 8002f10:	d9013b15 	stw	r4,1260(sp)
 8002f14:	dcc12785 	stb	r19,1182(sp)
 8002f18:	e0c0080c 	andi	r3,fp,32
 8002f1c:	d8812d17 	ldw	r2,1204(sp)
 8002f20:	183fd21e 	bne	r3,zero,8002e6c <__alt_data_end+0xfc002e6c>
 8002f24:	e0c0040c 	andi	r3,fp,16
 8002f28:	18035426 	beq	r3,zero,8003c7c <___vfprintf_internal_r+0x18c4>
 8002f2c:	d8c12d17 	ldw	r3,1204(sp)
 8002f30:	14800017 	ldw	r18,0(r2)
 8002f34:	002b883a 	mov	r21,zero
 8002f38:	18c00104 	addi	r3,r3,4
 8002f3c:	d8c12d15 	stw	r3,1204(sp)
 8002f40:	003fcf06 	br	8002e80 <__alt_data_end+0xfc002e80>
 8002f44:	e4000007 	ldb	r16,0(fp)
 8002f48:	00801b04 	movi	r2,108
 8002f4c:	8083f726 	beq	r16,r2,8003f2c <___vfprintf_internal_r+0x1b74>
 8002f50:	9cc00414 	ori	r19,r19,16
 8002f54:	e005883a 	mov	r2,fp
 8002f58:	003d7f06 	br	8002558 <__alt_data_end+0xfc002558>
 8002f5c:	da012a17 	ldw	r8,1192(sp)
 8002f60:	df012a15 	stw	fp,1192(sp)
 8002f64:	9839883a 	mov	fp,r19
 8002f68:	dcc12b03 	ldbu	r19,1196(sp)
 8002f6c:	e080080c 	andi	r2,fp,32
 8002f70:	dcc12785 	stb	r19,1182(sp)
 8002f74:	10032226 	beq	r2,zero,8003c00 <___vfprintf_internal_r+0x1848>
 8002f78:	d9412d17 	ldw	r5,1204(sp)
 8002f7c:	d9012f17 	ldw	r4,1212(sp)
 8002f80:	28800017 	ldw	r2,0(r5)
 8002f84:	2007d7fa 	srai	r3,r4,31
 8002f88:	29400104 	addi	r5,r5,4
 8002f8c:	d9412d15 	stw	r5,1204(sp)
 8002f90:	11000015 	stw	r4,0(r2)
 8002f94:	10c00115 	stw	r3,4(r2)
 8002f98:	003d4406 	br	80024ac <__alt_data_end+0xfc0024ac>
 8002f9c:	da012a17 	ldw	r8,1192(sp)
 8002fa0:	df012a15 	stw	fp,1192(sp)
 8002fa4:	9839883a 	mov	fp,r19
 8002fa8:	e0c0080c 	andi	r3,fp,32
 8002fac:	d8812d17 	ldw	r2,1204(sp)
 8002fb0:	183f8a1e 	bne	r3,zero,8002ddc <__alt_data_end+0xfc002ddc>
 8002fb4:	e0c0040c 	andi	r3,fp,16
 8002fb8:	18031c26 	beq	r3,zero,8003c2c <___vfprintf_internal_r+0x1874>
 8002fbc:	14800017 	ldw	r18,0(r2)
 8002fc0:	d8812d17 	ldw	r2,1204(sp)
 8002fc4:	002b883a 	mov	r21,zero
 8002fc8:	9007883a 	mov	r3,r18
 8002fcc:	10800104 	addi	r2,r2,4
 8002fd0:	d8812d15 	stw	r2,1204(sp)
 8002fd4:	0005883a 	mov	r2,zero
 8002fd8:	003f8706 	br	8002df8 <__alt_data_end+0xfc002df8>
 8002fdc:	d9412d17 	ldw	r5,1204(sp)
 8002fe0:	00800c04 	movi	r2,48
 8002fe4:	d8812705 	stb	r2,1180(sp)
 8002fe8:	2c800017 	ldw	r18,0(r5)
 8002fec:	00801e04 	movi	r2,120
 8002ff0:	d8812745 	stb	r2,1181(sp)
 8002ff4:	00820074 	movhi	r2,2049
 8002ff8:	1081f004 	addi	r2,r2,1984
 8002ffc:	29400104 	addi	r5,r5,4
 8003000:	da012a17 	ldw	r8,1192(sp)
 8003004:	d8813b15 	stw	r2,1260(sp)
 8003008:	df012a15 	stw	fp,1192(sp)
 800300c:	002b883a 	mov	r21,zero
 8003010:	9f000094 	ori	fp,r19,2
 8003014:	d9412d15 	stw	r5,1204(sp)
 8003018:	00800084 	movi	r2,2
 800301c:	04001e04 	movi	r16,120
 8003020:	9007883a 	mov	r3,r18
 8003024:	003f7406 	br	8002df8 <__alt_data_end+0xfc002df8>
 8003028:	da012a17 	ldw	r8,1192(sp)
 800302c:	df012a15 	stw	fp,1192(sp)
 8003030:	9839883a 	mov	fp,r19
 8003034:	dcc12b03 	ldbu	r19,1196(sp)
 8003038:	e080080c 	andi	r2,fp,32
 800303c:	d8c12d17 	ldw	r3,1204(sp)
 8003040:	dcc12785 	stb	r19,1182(sp)
 8003044:	103e321e 	bne	r2,zero,8002910 <__alt_data_end+0xfc002910>
 8003048:	e080040c 	andi	r2,fp,16
 800304c:	10031326 	beq	r2,zero,8003c9c <___vfprintf_internal_r+0x18e4>
 8003050:	1c800017 	ldw	r18,0(r3)
 8003054:	d9412d17 	ldw	r5,1204(sp)
 8003058:	902bd7fa 	srai	r21,r18,31
 800305c:	29400104 	addi	r5,r5,4
 8003060:	d9412d15 	stw	r5,1204(sp)
 8003064:	a805883a 	mov	r2,r21
 8003068:	003e2f06 	br	8002928 <__alt_data_end+0xfc002928>
 800306c:	9cc01014 	ori	r19,r19,64
 8003070:	e005883a 	mov	r2,fp
 8003074:	e4000007 	ldb	r16,0(fp)
 8003078:	003d3706 	br	8002558 <__alt_data_end+0xfc002558>
 800307c:	d8c12d17 	ldw	r3,1204(sp)
 8003080:	d9012d17 	ldw	r4,1204(sp)
 8003084:	da012a17 	ldw	r8,1192(sp)
 8003088:	18800017 	ldw	r2,0(r3)
 800308c:	21000104 	addi	r4,r4,4
 8003090:	00c00044 	movi	r3,1
 8003094:	df012a15 	stw	fp,1192(sp)
 8003098:	d8c12b15 	stw	r3,1196(sp)
 800309c:	9839883a 	mov	fp,r19
 80030a0:	d8012785 	stb	zero,1182(sp)
 80030a4:	d8810405 	stb	r2,1040(sp)
 80030a8:	d9012d15 	stw	r4,1204(sp)
 80030ac:	1823883a 	mov	r17,r3
 80030b0:	d8c10404 	addi	r3,sp,1040
 80030b4:	d8013215 	stw	zero,1224(sp)
 80030b8:	d8013415 	stw	zero,1232(sp)
 80030bc:	d8c13115 	stw	r3,1220(sp)
 80030c0:	0005883a 	mov	r2,zero
 80030c4:	003e4306 	br	80029d4 <__alt_data_end+0xfc0029d4>
 80030c8:	d8812b07 	ldb	r2,1196(sp)
 80030cc:	1002fc1e 	bne	r2,zero,8003cc0 <___vfprintf_internal_r+0x1908>
 80030d0:	00c00804 	movi	r3,32
 80030d4:	d8c12b05 	stb	r3,1196(sp)
 80030d8:	e005883a 	mov	r2,fp
 80030dc:	e4000007 	ldb	r16,0(fp)
 80030e0:	003d1d06 	br	8002558 <__alt_data_end+0xfc002558>
 80030e4:	9cc00054 	ori	r19,r19,1
 80030e8:	e005883a 	mov	r2,fp
 80030ec:	e4000007 	ldb	r16,0(fp)
 80030f0:	003d1906 	br	8002558 <__alt_data_end+0xfc002558>
 80030f4:	d9012d17 	ldw	r4,1204(sp)
 80030f8:	d9412d17 	ldw	r5,1204(sp)
 80030fc:	21000017 	ldw	r4,0(r4)
 8003100:	28c00104 	addi	r3,r5,4
 8003104:	d9012e15 	stw	r4,1208(sp)
 8003108:	20038c16 	blt	r4,zero,8003f3c <___vfprintf_internal_r+0x1b84>
 800310c:	d8c12d15 	stw	r3,1204(sp)
 8003110:	e005883a 	mov	r2,fp
 8003114:	e4000007 	ldb	r16,0(fp)
 8003118:	003d0f06 	br	8002558 <__alt_data_end+0xfc002558>
 800311c:	00c00ac4 	movi	r3,43
 8003120:	d8c12b05 	stb	r3,1196(sp)
 8003124:	e005883a 	mov	r2,fp
 8003128:	e4000007 	ldb	r16,0(fp)
 800312c:	003d0a06 	br	8002558 <__alt_data_end+0xfc002558>
 8003130:	d8c12d17 	ldw	r3,1204(sp)
 8003134:	d9012d17 	ldw	r4,1204(sp)
 8003138:	da012a17 	ldw	r8,1192(sp)
 800313c:	18c00017 	ldw	r3,0(r3)
 8003140:	df012a15 	stw	fp,1192(sp)
 8003144:	d8012785 	stb	zero,1182(sp)
 8003148:	d8c13115 	stw	r3,1220(sp)
 800314c:	9839883a 	mov	fp,r19
 8003150:	24800104 	addi	r18,r4,4
 8003154:	1803f726 	beq	r3,zero,8004134 <___vfprintf_internal_r+0x1d7c>
 8003158:	d9013117 	ldw	r4,1220(sp)
 800315c:	48038916 	blt	r9,zero,8003f84 <___vfprintf_internal_r+0x1bcc>
 8003160:	480d883a 	mov	r6,r9
 8003164:	000b883a 	mov	r5,zero
 8003168:	da013f15 	stw	r8,1276(sp)
 800316c:	da413e15 	stw	r9,1272(sp)
 8003170:	80079cc0 	call	80079cc <memchr>
 8003174:	da013f17 	ldw	r8,1276(sp)
 8003178:	da413e17 	ldw	r9,1272(sp)
 800317c:	10045926 	beq	r2,zero,80042e4 <___vfprintf_internal_r+0x1f2c>
 8003180:	d8c13117 	ldw	r3,1220(sp)
 8003184:	10e3c83a 	sub	r17,r2,r3
 8003188:	4c433516 	blt	r9,r17,8003e60 <___vfprintf_internal_r+0x1aa8>
 800318c:	8805883a 	mov	r2,r17
 8003190:	88038116 	blt	r17,zero,8003f98 <___vfprintf_internal_r+0x1be0>
 8003194:	dcc12783 	ldbu	r19,1182(sp)
 8003198:	d8812b15 	stw	r2,1196(sp)
 800319c:	dc812d15 	stw	r18,1204(sp)
 80031a0:	d8013215 	stw	zero,1224(sp)
 80031a4:	d8013415 	stw	zero,1232(sp)
 80031a8:	003e0306 	br	80029b8 <__alt_data_end+0xfc0029b8>
 80031ac:	da012a17 	ldw	r8,1192(sp)
 80031b0:	df012a15 	stw	fp,1192(sp)
 80031b4:	9839883a 	mov	fp,r19
 80031b8:	dcc12b03 	ldbu	r19,1196(sp)
 80031bc:	dcc12785 	stb	r19,1182(sp)
 80031c0:	803d8f26 	beq	r16,zero,8002800 <__alt_data_end+0xfc002800>
 80031c4:	00c00044 	movi	r3,1
 80031c8:	d8c12b15 	stw	r3,1196(sp)
 80031cc:	dc010405 	stb	r16,1040(sp)
 80031d0:	d8012785 	stb	zero,1182(sp)
 80031d4:	003fb506 	br	80030ac <__alt_data_end+0xfc0030ac>
 80031d8:	d8c12017 	ldw	r3,1152(sp)
 80031dc:	003e3506 	br	8002ab4 <__alt_data_end+0xfc002ab4>
 80031e0:	10803fcc 	andi	r2,r2,255
 80031e4:	00c00044 	movi	r3,1
 80031e8:	10fddc1e 	bne	r2,r3,800295c <__alt_data_end+0xfc00295c>
 80031ec:	a800021e 	bne	r21,zero,80031f8 <___vfprintf_internal_r+0xe40>
 80031f0:	00800244 	movi	r2,9
 80031f4:	14801e2e 	bgeu	r2,r18,8003270 <___vfprintf_internal_r+0xeb8>
 80031f8:	dc012b15 	stw	r16,1196(sp)
 80031fc:	dc410e04 	addi	r17,sp,1080
 8003200:	9021883a 	mov	r16,r18
 8003204:	da012c15 	stw	r8,1200(sp)
 8003208:	a825883a 	mov	r18,r21
 800320c:	482b883a 	mov	r21,r9
 8003210:	8009883a 	mov	r4,r16
 8003214:	900b883a 	mov	r5,r18
 8003218:	01800284 	movi	r6,10
 800321c:	000f883a 	mov	r7,zero
 8003220:	800bd4c0 	call	800bd4c <__umoddi3>
 8003224:	10800c04 	addi	r2,r2,48
 8003228:	8c7fffc4 	addi	r17,r17,-1
 800322c:	8009883a 	mov	r4,r16
 8003230:	900b883a 	mov	r5,r18
 8003234:	01800284 	movi	r6,10
 8003238:	000f883a 	mov	r7,zero
 800323c:	88800005 	stb	r2,0(r17)
 8003240:	800b70c0 	call	800b70c <__udivdi3>
 8003244:	1021883a 	mov	r16,r2
 8003248:	10c4b03a 	or	r2,r2,r3
 800324c:	1825883a 	mov	r18,r3
 8003250:	103fef1e 	bne	r2,zero,8003210 <__alt_data_end+0xfc003210>
 8003254:	d9012817 	ldw	r4,1184(sp)
 8003258:	dc413115 	stw	r17,1220(sp)
 800325c:	dc012b17 	ldw	r16,1196(sp)
 8003260:	da012c17 	ldw	r8,1200(sp)
 8003264:	a813883a 	mov	r9,r21
 8003268:	2463c83a 	sub	r17,r4,r17
 800326c:	003dcd06 	br	80029a4 <__alt_data_end+0xfc0029a4>
 8003270:	94800c04 	addi	r18,r18,48
 8003274:	d8c10dc4 	addi	r3,sp,1079
 8003278:	dc810dc5 	stb	r18,1079(sp)
 800327c:	dc413c17 	ldw	r17,1264(sp)
 8003280:	d8c13115 	stw	r3,1220(sp)
 8003284:	003dc706 	br	80029a4 <__alt_data_end+0xfc0029a4>
 8003288:	00801944 	movi	r2,101
 800328c:	1400720e 	bge	r2,r16,8003458 <___vfprintf_internal_r+0x10a0>
 8003290:	d9013717 	ldw	r4,1244(sp)
 8003294:	d9413917 	ldw	r5,1252(sp)
 8003298:	000d883a 	mov	r6,zero
 800329c:	000f883a 	mov	r7,zero
 80032a0:	d8c13d15 	stw	r3,1268(sp)
 80032a4:	da013f15 	stw	r8,1276(sp)
 80032a8:	800cc040 	call	800cc04 <__eqdf2>
 80032ac:	d8c13d17 	ldw	r3,1268(sp)
 80032b0:	da013f17 	ldw	r8,1276(sp)
 80032b4:	1000f41e 	bne	r2,zero,8003688 <___vfprintf_internal_r+0x12d0>
 80032b8:	d8811f17 	ldw	r2,1148(sp)
 80032bc:	01020074 	movhi	r4,2049
 80032c0:	2101f704 	addi	r4,r4,2012
 80032c4:	18c00044 	addi	r3,r3,1
 80032c8:	10800044 	addi	r2,r2,1
 80032cc:	41000015 	stw	r4,0(r8)
 80032d0:	01000044 	movi	r4,1
 80032d4:	41000115 	stw	r4,4(r8)
 80032d8:	d8c12015 	stw	r3,1152(sp)
 80032dc:	d8811f15 	stw	r2,1148(sp)
 80032e0:	010001c4 	movi	r4,7
 80032e4:	20828d16 	blt	r4,r2,8003d1c <___vfprintf_internal_r+0x1964>
 80032e8:	42000204 	addi	r8,r8,8
 80032ec:	d8812617 	ldw	r2,1176(sp)
 80032f0:	d9413317 	ldw	r5,1228(sp)
 80032f4:	11400216 	blt	r2,r5,8003300 <___vfprintf_internal_r+0xf48>
 80032f8:	e080004c 	andi	r2,fp,1
 80032fc:	103e4126 	beq	r2,zero,8002c04 <__alt_data_end+0xfc002c04>
 8003300:	d8813817 	ldw	r2,1248(sp)
 8003304:	d9013517 	ldw	r4,1236(sp)
 8003308:	d9413817 	ldw	r5,1248(sp)
 800330c:	1887883a 	add	r3,r3,r2
 8003310:	d8811f17 	ldw	r2,1148(sp)
 8003314:	41000015 	stw	r4,0(r8)
 8003318:	41400115 	stw	r5,4(r8)
 800331c:	10800044 	addi	r2,r2,1
 8003320:	d8c12015 	stw	r3,1152(sp)
 8003324:	d8811f15 	stw	r2,1148(sp)
 8003328:	010001c4 	movi	r4,7
 800332c:	20830916 	blt	r4,r2,8003f54 <___vfprintf_internal_r+0x1b9c>
 8003330:	42000204 	addi	r8,r8,8
 8003334:	d8813317 	ldw	r2,1228(sp)
 8003338:	143fffc4 	addi	r16,r2,-1
 800333c:	043e310e 	bge	zero,r16,8002c04 <__alt_data_end+0xfc002c04>
 8003340:	04400404 	movi	r17,16
 8003344:	d8811f17 	ldw	r2,1148(sp)
 8003348:	8c007e0e 	bge	r17,r16,8003544 <___vfprintf_internal_r+0x118c>
 800334c:	01420074 	movhi	r5,2049
 8003350:	2941f784 	addi	r5,r5,2014
 8003354:	d9412c15 	stw	r5,1200(sp)
 8003358:	04c001c4 	movi	r19,7
 800335c:	00000306 	br	800336c <___vfprintf_internal_r+0xfb4>
 8003360:	42000204 	addi	r8,r8,8
 8003364:	843ffc04 	addi	r16,r16,-16
 8003368:	8c00790e 	bge	r17,r16,8003550 <___vfprintf_internal_r+0x1198>
 800336c:	18c00404 	addi	r3,r3,16
 8003370:	10800044 	addi	r2,r2,1
 8003374:	45000015 	stw	r20,0(r8)
 8003378:	44400115 	stw	r17,4(r8)
 800337c:	d8c12015 	stw	r3,1152(sp)
 8003380:	d8811f15 	stw	r2,1148(sp)
 8003384:	98bff60e 	bge	r19,r2,8003360 <__alt_data_end+0xfc003360>
 8003388:	b809883a 	mov	r4,r23
 800338c:	b00b883a 	mov	r5,r22
 8003390:	d9811e04 	addi	r6,sp,1144
 8003394:	80099600 	call	8009960 <__sprint_r>
 8003398:	103d1f1e 	bne	r2,zero,8002818 <__alt_data_end+0xfc002818>
 800339c:	d8c12017 	ldw	r3,1152(sp)
 80033a0:	d8811f17 	ldw	r2,1148(sp)
 80033a4:	da000404 	addi	r8,sp,16
 80033a8:	003fee06 	br	8003364 <__alt_data_end+0xfc003364>
 80033ac:	d9412e17 	ldw	r5,1208(sp)
 80033b0:	d8812b17 	ldw	r2,1196(sp)
 80033b4:	28a7c83a 	sub	r19,r5,r2
 80033b8:	04fddc0e 	bge	zero,r19,8002b2c <__alt_data_end+0xfc002b2c>
 80033bc:	05400404 	movi	r21,16
 80033c0:	d8811f17 	ldw	r2,1148(sp)
 80033c4:	acc3870e 	bge	r21,r19,80041e4 <___vfprintf_internal_r+0x1e2c>
 80033c8:	01420074 	movhi	r5,2049
 80033cc:	2941f784 	addi	r5,r5,2014
 80033d0:	d9412c15 	stw	r5,1200(sp)
 80033d4:	048001c4 	movi	r18,7
 80033d8:	00000306 	br	80033e8 <___vfprintf_internal_r+0x1030>
 80033dc:	9cfffc04 	addi	r19,r19,-16
 80033e0:	42000204 	addi	r8,r8,8
 80033e4:	acc0110e 	bge	r21,r19,800342c <___vfprintf_internal_r+0x1074>
 80033e8:	18c00404 	addi	r3,r3,16
 80033ec:	10800044 	addi	r2,r2,1
 80033f0:	45000015 	stw	r20,0(r8)
 80033f4:	45400115 	stw	r21,4(r8)
 80033f8:	d8c12015 	stw	r3,1152(sp)
 80033fc:	d8811f15 	stw	r2,1148(sp)
 8003400:	90bff60e 	bge	r18,r2,80033dc <__alt_data_end+0xfc0033dc>
 8003404:	b809883a 	mov	r4,r23
 8003408:	b00b883a 	mov	r5,r22
 800340c:	d9811e04 	addi	r6,sp,1144
 8003410:	80099600 	call	8009960 <__sprint_r>
 8003414:	103d001e 	bne	r2,zero,8002818 <__alt_data_end+0xfc002818>
 8003418:	9cfffc04 	addi	r19,r19,-16
 800341c:	d8c12017 	ldw	r3,1152(sp)
 8003420:	d8811f17 	ldw	r2,1148(sp)
 8003424:	da000404 	addi	r8,sp,16
 8003428:	acffef16 	blt	r21,r19,80033e8 <__alt_data_end+0xfc0033e8>
 800342c:	d9012c17 	ldw	r4,1200(sp)
 8003430:	1cc7883a 	add	r3,r3,r19
 8003434:	10800044 	addi	r2,r2,1
 8003438:	41000015 	stw	r4,0(r8)
 800343c:	44c00115 	stw	r19,4(r8)
 8003440:	d8c12015 	stw	r3,1152(sp)
 8003444:	d8811f15 	stw	r2,1148(sp)
 8003448:	010001c4 	movi	r4,7
 800344c:	20817816 	blt	r4,r2,8003a30 <___vfprintf_internal_r+0x1678>
 8003450:	42000204 	addi	r8,r8,8
 8003454:	003db506 	br	8002b2c <__alt_data_end+0xfc002b2c>
 8003458:	d9413317 	ldw	r5,1228(sp)
 800345c:	00800044 	movi	r2,1
 8003460:	18c00044 	addi	r3,r3,1
 8003464:	11413e0e 	bge	r2,r5,8003960 <___vfprintf_internal_r+0x15a8>
 8003468:	dc011f17 	ldw	r16,1148(sp)
 800346c:	d8813117 	ldw	r2,1220(sp)
 8003470:	d8c12015 	stw	r3,1152(sp)
 8003474:	84000044 	addi	r16,r16,1
 8003478:	40800015 	stw	r2,0(r8)
 800347c:	00800044 	movi	r2,1
 8003480:	40800115 	stw	r2,4(r8)
 8003484:	dc011f15 	stw	r16,1148(sp)
 8003488:	008001c4 	movi	r2,7
 800348c:	14015616 	blt	r2,r16,80039e8 <___vfprintf_internal_r+0x1630>
 8003490:	42000204 	addi	r8,r8,8
 8003494:	d9013817 	ldw	r4,1248(sp)
 8003498:	d9413517 	ldw	r5,1236(sp)
 800349c:	84000044 	addi	r16,r16,1
 80034a0:	1907883a 	add	r3,r3,r4
 80034a4:	41400015 	stw	r5,0(r8)
 80034a8:	41000115 	stw	r4,4(r8)
 80034ac:	d8c12015 	stw	r3,1152(sp)
 80034b0:	dc011f15 	stw	r16,1148(sp)
 80034b4:	008001c4 	movi	r2,7
 80034b8:	14015416 	blt	r2,r16,8003a0c <___vfprintf_internal_r+0x1654>
 80034bc:	44400204 	addi	r17,r8,8
 80034c0:	d9013717 	ldw	r4,1244(sp)
 80034c4:	d9413917 	ldw	r5,1252(sp)
 80034c8:	000d883a 	mov	r6,zero
 80034cc:	000f883a 	mov	r7,zero
 80034d0:	d8c13d15 	stw	r3,1268(sp)
 80034d4:	800cc040 	call	800cc04 <__eqdf2>
 80034d8:	d8c13d17 	ldw	r3,1268(sp)
 80034dc:	1000a726 	beq	r2,zero,800377c <___vfprintf_internal_r+0x13c4>
 80034e0:	d9013317 	ldw	r4,1228(sp)
 80034e4:	d9413117 	ldw	r5,1220(sp)
 80034e8:	84000044 	addi	r16,r16,1
 80034ec:	20bfffc4 	addi	r2,r4,-1
 80034f0:	1887883a 	add	r3,r3,r2
 80034f4:	29000044 	addi	r4,r5,1
 80034f8:	88800115 	stw	r2,4(r17)
 80034fc:	89000015 	stw	r4,0(r17)
 8003500:	d8c12015 	stw	r3,1152(sp)
 8003504:	dc011f15 	stw	r16,1148(sp)
 8003508:	008001c4 	movi	r2,7
 800350c:	14012d16 	blt	r2,r16,80039c4 <___vfprintf_internal_r+0x160c>
 8003510:	8c400204 	addi	r17,r17,8
 8003514:	d9413a17 	ldw	r5,1256(sp)
 8003518:	dcc122c4 	addi	r19,sp,1163
 800351c:	84000044 	addi	r16,r16,1
 8003520:	28c7883a 	add	r3,r5,r3
 8003524:	8cc00015 	stw	r19,0(r17)
 8003528:	89400115 	stw	r5,4(r17)
 800352c:	d8c12015 	stw	r3,1152(sp)
 8003530:	dc011f15 	stw	r16,1148(sp)
 8003534:	008001c4 	movi	r2,7
 8003538:	14000e16 	blt	r2,r16,8003574 <___vfprintf_internal_r+0x11bc>
 800353c:	8a000204 	addi	r8,r17,8
 8003540:	003db006 	br	8002c04 <__alt_data_end+0xfc002c04>
 8003544:	01020074 	movhi	r4,2049
 8003548:	2101f784 	addi	r4,r4,2014
 800354c:	d9012c15 	stw	r4,1200(sp)
 8003550:	d9012c17 	ldw	r4,1200(sp)
 8003554:	1c07883a 	add	r3,r3,r16
 8003558:	44000115 	stw	r16,4(r8)
 800355c:	41000015 	stw	r4,0(r8)
 8003560:	10800044 	addi	r2,r2,1
 8003564:	d8c12015 	stw	r3,1152(sp)
 8003568:	d8811f15 	stw	r2,1148(sp)
 800356c:	010001c4 	movi	r4,7
 8003570:	20bda30e 	bge	r4,r2,8002c00 <__alt_data_end+0xfc002c00>
 8003574:	b809883a 	mov	r4,r23
 8003578:	b00b883a 	mov	r5,r22
 800357c:	d9811e04 	addi	r6,sp,1144
 8003580:	80099600 	call	8009960 <__sprint_r>
 8003584:	103ca41e 	bne	r2,zero,8002818 <__alt_data_end+0xfc002818>
 8003588:	d8c12017 	ldw	r3,1152(sp)
 800358c:	da000404 	addi	r8,sp,16
 8003590:	003d9c06 	br	8002c04 <__alt_data_end+0xfc002c04>
 8003594:	b809883a 	mov	r4,r23
 8003598:	b00b883a 	mov	r5,r22
 800359c:	d9811e04 	addi	r6,sp,1144
 80035a0:	80099600 	call	8009960 <__sprint_r>
 80035a4:	103dd226 	beq	r2,zero,8002cf0 <__alt_data_end+0xfc002cf0>
 80035a8:	003c9b06 	br	8002818 <__alt_data_end+0xfc002818>
 80035ac:	10803fcc 	andi	r2,r2,255
 80035b0:	1000311e 	bne	r2,zero,8003678 <___vfprintf_internal_r+0x12c0>
 80035b4:	e080004c 	andi	r2,fp,1
 80035b8:	10002f26 	beq	r2,zero,8003678 <___vfprintf_internal_r+0x12c0>
 80035bc:	00800c04 	movi	r2,48
 80035c0:	d8c10dc4 	addi	r3,sp,1079
 80035c4:	d8810dc5 	stb	r2,1079(sp)
 80035c8:	dc413c17 	ldw	r17,1264(sp)
 80035cc:	d8c13115 	stw	r3,1220(sp)
 80035d0:	003cf406 	br	80029a4 <__alt_data_end+0xfc0029a4>
 80035d4:	b809883a 	mov	r4,r23
 80035d8:	b00b883a 	mov	r5,r22
 80035dc:	d9811e04 	addi	r6,sp,1144
 80035e0:	80099600 	call	8009960 <__sprint_r>
 80035e4:	103c8c1e 	bne	r2,zero,8002818 <__alt_data_end+0xfc002818>
 80035e8:	d8c12017 	ldw	r3,1152(sp)
 80035ec:	da000404 	addi	r8,sp,16
 80035f0:	003d7706 	br	8002bd0 <__alt_data_end+0xfc002bd0>
 80035f4:	b809883a 	mov	r4,r23
 80035f8:	b00b883a 	mov	r5,r22
 80035fc:	d9811e04 	addi	r6,sp,1144
 8003600:	80099600 	call	8009960 <__sprint_r>
 8003604:	103c841e 	bne	r2,zero,8002818 <__alt_data_end+0xfc002818>
 8003608:	d8c12017 	ldw	r3,1152(sp)
 800360c:	da000404 	addi	r8,sp,16
 8003610:	003d3506 	br	8002ae8 <__alt_data_end+0xfc002ae8>
 8003614:	b809883a 	mov	r4,r23
 8003618:	b00b883a 	mov	r5,r22
 800361c:	d9811e04 	addi	r6,sp,1144
 8003620:	80099600 	call	8009960 <__sprint_r>
 8003624:	103c7c1e 	bne	r2,zero,8002818 <__alt_data_end+0xfc002818>
 8003628:	d8c12017 	ldw	r3,1152(sp)
 800362c:	da000404 	addi	r8,sp,16
 8003630:	003d3b06 	br	8002b20 <__alt_data_end+0xfc002b20>
 8003634:	d9413b17 	ldw	r5,1260(sp)
 8003638:	d8c10e04 	addi	r3,sp,1080
 800363c:	908003cc 	andi	r2,r18,15
 8003640:	a808973a 	slli	r4,r21,28
 8003644:	2885883a 	add	r2,r5,r2
 8003648:	9024d13a 	srli	r18,r18,4
 800364c:	10800003 	ldbu	r2,0(r2)
 8003650:	a82ad13a 	srli	r21,r21,4
 8003654:	18ffffc4 	addi	r3,r3,-1
 8003658:	24a4b03a 	or	r18,r4,r18
 800365c:	18800005 	stb	r2,0(r3)
 8003660:	9544b03a 	or	r2,r18,r21
 8003664:	103ff51e 	bne	r2,zero,800363c <__alt_data_end+0xfc00363c>
 8003668:	d9412817 	ldw	r5,1184(sp)
 800366c:	d8c13115 	stw	r3,1220(sp)
 8003670:	28e3c83a 	sub	r17,r5,r3
 8003674:	003ccb06 	br	80029a4 <__alt_data_end+0xfc0029a4>
 8003678:	d8c10e04 	addi	r3,sp,1080
 800367c:	0023883a 	mov	r17,zero
 8003680:	d8c13115 	stw	r3,1220(sp)
 8003684:	003cc706 	br	80029a4 <__alt_data_end+0xfc0029a4>
 8003688:	dc012617 	ldw	r16,1176(sp)
 800368c:	0401ab0e 	bge	zero,r16,8003d3c <___vfprintf_internal_r+0x1984>
 8003690:	d8813317 	ldw	r2,1228(sp)
 8003694:	d9413117 	ldw	r5,1220(sp)
 8003698:	d9013417 	ldw	r4,1232(sp)
 800369c:	1023883a 	mov	r17,r2
 80036a0:	28a1883a 	add	r16,r5,r2
 80036a4:	2080010e 	bge	r4,r2,80036ac <___vfprintf_internal_r+0x12f4>
 80036a8:	2023883a 	mov	r17,r4
 80036ac:	04400b0e 	bge	zero,r17,80036dc <___vfprintf_internal_r+0x1324>
 80036b0:	d8811f17 	ldw	r2,1148(sp)
 80036b4:	d9413117 	ldw	r5,1220(sp)
 80036b8:	1c47883a 	add	r3,r3,r17
 80036bc:	10800044 	addi	r2,r2,1
 80036c0:	41400015 	stw	r5,0(r8)
 80036c4:	44400115 	stw	r17,4(r8)
 80036c8:	d8c12015 	stw	r3,1152(sp)
 80036cc:	d8811f15 	stw	r2,1148(sp)
 80036d0:	010001c4 	movi	r4,7
 80036d4:	20826716 	blt	r4,r2,8004074 <___vfprintf_internal_r+0x1cbc>
 80036d8:	42000204 	addi	r8,r8,8
 80036dc:	88026316 	blt	r17,zero,800406c <___vfprintf_internal_r+0x1cb4>
 80036e0:	d8813417 	ldw	r2,1232(sp)
 80036e4:	1463c83a 	sub	r17,r2,r17
 80036e8:	0440590e 	bge	zero,r17,8003850 <___vfprintf_internal_r+0x1498>
 80036ec:	04c00404 	movi	r19,16
 80036f0:	d8811f17 	ldw	r2,1148(sp)
 80036f4:	9c41770e 	bge	r19,r17,8003cd4 <___vfprintf_internal_r+0x191c>
 80036f8:	01420074 	movhi	r5,2049
 80036fc:	2941f784 	addi	r5,r5,2014
 8003700:	d9412c15 	stw	r5,1200(sp)
 8003704:	054001c4 	movi	r21,7
 8003708:	00000306 	br	8003718 <___vfprintf_internal_r+0x1360>
 800370c:	42000204 	addi	r8,r8,8
 8003710:	8c7ffc04 	addi	r17,r17,-16
 8003714:	9c41720e 	bge	r19,r17,8003ce0 <___vfprintf_internal_r+0x1928>
 8003718:	18c00404 	addi	r3,r3,16
 800371c:	10800044 	addi	r2,r2,1
 8003720:	45000015 	stw	r20,0(r8)
 8003724:	44c00115 	stw	r19,4(r8)
 8003728:	d8c12015 	stw	r3,1152(sp)
 800372c:	d8811f15 	stw	r2,1148(sp)
 8003730:	a8bff60e 	bge	r21,r2,800370c <__alt_data_end+0xfc00370c>
 8003734:	b809883a 	mov	r4,r23
 8003738:	b00b883a 	mov	r5,r22
 800373c:	d9811e04 	addi	r6,sp,1144
 8003740:	80099600 	call	8009960 <__sprint_r>
 8003744:	103c341e 	bne	r2,zero,8002818 <__alt_data_end+0xfc002818>
 8003748:	d8c12017 	ldw	r3,1152(sp)
 800374c:	d8811f17 	ldw	r2,1148(sp)
 8003750:	da000404 	addi	r8,sp,16
 8003754:	003fee06 	br	8003710 <__alt_data_end+0xfc003710>
 8003758:	b809883a 	mov	r4,r23
 800375c:	b00b883a 	mov	r5,r22
 8003760:	d9811e04 	addi	r6,sp,1144
 8003764:	80099600 	call	8009960 <__sprint_r>
 8003768:	103c2b1e 	bne	r2,zero,8002818 <__alt_data_end+0xfc002818>
 800376c:	d8c12017 	ldw	r3,1152(sp)
 8003770:	d8812787 	ldb	r2,1182(sp)
 8003774:	da000404 	addi	r8,sp,16
 8003778:	003cce06 	br	8002ab4 <__alt_data_end+0xfc002ab4>
 800377c:	d8813317 	ldw	r2,1228(sp)
 8003780:	14ffffc4 	addi	r19,r2,-1
 8003784:	04ff630e 	bge	zero,r19,8003514 <__alt_data_end+0xfc003514>
 8003788:	05400404 	movi	r21,16
 800378c:	acc0810e 	bge	r21,r19,8003994 <___vfprintf_internal_r+0x15dc>
 8003790:	01420074 	movhi	r5,2049
 8003794:	2941f784 	addi	r5,r5,2014
 8003798:	d9412c15 	stw	r5,1200(sp)
 800379c:	01c001c4 	movi	r7,7
 80037a0:	00000306 	br	80037b0 <___vfprintf_internal_r+0x13f8>
 80037a4:	8c400204 	addi	r17,r17,8
 80037a8:	9cfffc04 	addi	r19,r19,-16
 80037ac:	acc07c0e 	bge	r21,r19,80039a0 <___vfprintf_internal_r+0x15e8>
 80037b0:	18c00404 	addi	r3,r3,16
 80037b4:	84000044 	addi	r16,r16,1
 80037b8:	8d000015 	stw	r20,0(r17)
 80037bc:	8d400115 	stw	r21,4(r17)
 80037c0:	d8c12015 	stw	r3,1152(sp)
 80037c4:	dc011f15 	stw	r16,1148(sp)
 80037c8:	3c3ff60e 	bge	r7,r16,80037a4 <__alt_data_end+0xfc0037a4>
 80037cc:	b809883a 	mov	r4,r23
 80037d0:	b00b883a 	mov	r5,r22
 80037d4:	d9811e04 	addi	r6,sp,1144
 80037d8:	d9c13d15 	stw	r7,1268(sp)
 80037dc:	80099600 	call	8009960 <__sprint_r>
 80037e0:	d9c13d17 	ldw	r7,1268(sp)
 80037e4:	103c0c1e 	bne	r2,zero,8002818 <__alt_data_end+0xfc002818>
 80037e8:	d8c12017 	ldw	r3,1152(sp)
 80037ec:	dc011f17 	ldw	r16,1148(sp)
 80037f0:	dc400404 	addi	r17,sp,16
 80037f4:	003fec06 	br	80037a8 <__alt_data_end+0xfc0037a8>
 80037f8:	00800084 	movi	r2,2
 80037fc:	9546b03a 	or	r3,r18,r21
 8003800:	003d7d06 	br	8002df8 <__alt_data_end+0xfc002df8>
 8003804:	10803fcc 	andi	r2,r2,255
 8003808:	1080201c 	xori	r2,r2,128
 800380c:	10bfe004 	addi	r2,r2,-128
 8003810:	01000c04 	movi	r4,48
 8003814:	1101d726 	beq	r2,r4,8003f74 <___vfprintf_internal_r+0x1bbc>
 8003818:	d9413117 	ldw	r5,1220(sp)
 800381c:	d8812817 	ldw	r2,1184(sp)
 8003820:	193fffc5 	stb	r4,-1(r3)
 8003824:	297fffc4 	addi	r5,r5,-1
 8003828:	d9413115 	stw	r5,1220(sp)
 800382c:	1163c83a 	sub	r17,r2,r5
 8003830:	003c5c06 	br	80029a4 <__alt_data_end+0xfc0029a4>
 8003834:	b809883a 	mov	r4,r23
 8003838:	b00b883a 	mov	r5,r22
 800383c:	d9811e04 	addi	r6,sp,1144
 8003840:	80099600 	call	8009960 <__sprint_r>
 8003844:	103bf41e 	bne	r2,zero,8002818 <__alt_data_end+0xfc002818>
 8003848:	d8c12017 	ldw	r3,1152(sp)
 800384c:	da000404 	addi	r8,sp,16
 8003850:	d9413117 	ldw	r5,1220(sp)
 8003854:	d9013417 	ldw	r4,1232(sp)
 8003858:	d8812617 	ldw	r2,1176(sp)
 800385c:	2923883a 	add	r17,r5,r4
 8003860:	d9413317 	ldw	r5,1228(sp)
 8003864:	11400216 	blt	r2,r5,8003870 <___vfprintf_internal_r+0x14b8>
 8003868:	e100004c 	andi	r4,fp,1
 800386c:	20000d26 	beq	r4,zero,80038a4 <___vfprintf_internal_r+0x14ec>
 8003870:	d9013817 	ldw	r4,1248(sp)
 8003874:	d9413517 	ldw	r5,1236(sp)
 8003878:	1907883a 	add	r3,r3,r4
 800387c:	d9011f17 	ldw	r4,1148(sp)
 8003880:	41400015 	stw	r5,0(r8)
 8003884:	d9413817 	ldw	r5,1248(sp)
 8003888:	21000044 	addi	r4,r4,1
 800388c:	d8c12015 	stw	r3,1152(sp)
 8003890:	41400115 	stw	r5,4(r8)
 8003894:	d9011f15 	stw	r4,1148(sp)
 8003898:	014001c4 	movi	r5,7
 800389c:	2901fd16 	blt	r5,r4,8004094 <___vfprintf_internal_r+0x1cdc>
 80038a0:	42000204 	addi	r8,r8,8
 80038a4:	d9013317 	ldw	r4,1228(sp)
 80038a8:	2085c83a 	sub	r2,r4,r2
 80038ac:	8449c83a 	sub	r4,r16,r17
 80038b0:	1021883a 	mov	r16,r2
 80038b4:	2080010e 	bge	r4,r2,80038bc <___vfprintf_internal_r+0x1504>
 80038b8:	2021883a 	mov	r16,r4
 80038bc:	04000a0e 	bge	zero,r16,80038e8 <___vfprintf_internal_r+0x1530>
 80038c0:	d9011f17 	ldw	r4,1148(sp)
 80038c4:	1c07883a 	add	r3,r3,r16
 80038c8:	44400015 	stw	r17,0(r8)
 80038cc:	21000044 	addi	r4,r4,1
 80038d0:	44000115 	stw	r16,4(r8)
 80038d4:	d8c12015 	stw	r3,1152(sp)
 80038d8:	d9011f15 	stw	r4,1148(sp)
 80038dc:	014001c4 	movi	r5,7
 80038e0:	29020916 	blt	r5,r4,8004108 <___vfprintf_internal_r+0x1d50>
 80038e4:	42000204 	addi	r8,r8,8
 80038e8:	80020116 	blt	r16,zero,80040f0 <___vfprintf_internal_r+0x1d38>
 80038ec:	1421c83a 	sub	r16,r2,r16
 80038f0:	043cc40e 	bge	zero,r16,8002c04 <__alt_data_end+0xfc002c04>
 80038f4:	04400404 	movi	r17,16
 80038f8:	d8811f17 	ldw	r2,1148(sp)
 80038fc:	8c3f110e 	bge	r17,r16,8003544 <__alt_data_end+0xfc003544>
 8003900:	01420074 	movhi	r5,2049
 8003904:	2941f784 	addi	r5,r5,2014
 8003908:	d9412c15 	stw	r5,1200(sp)
 800390c:	04c001c4 	movi	r19,7
 8003910:	00000306 	br	8003920 <___vfprintf_internal_r+0x1568>
 8003914:	42000204 	addi	r8,r8,8
 8003918:	843ffc04 	addi	r16,r16,-16
 800391c:	8c3f0c0e 	bge	r17,r16,8003550 <__alt_data_end+0xfc003550>
 8003920:	18c00404 	addi	r3,r3,16
 8003924:	10800044 	addi	r2,r2,1
 8003928:	45000015 	stw	r20,0(r8)
 800392c:	44400115 	stw	r17,4(r8)
 8003930:	d8c12015 	stw	r3,1152(sp)
 8003934:	d8811f15 	stw	r2,1148(sp)
 8003938:	98bff60e 	bge	r19,r2,8003914 <__alt_data_end+0xfc003914>
 800393c:	b809883a 	mov	r4,r23
 8003940:	b00b883a 	mov	r5,r22
 8003944:	d9811e04 	addi	r6,sp,1144
 8003948:	80099600 	call	8009960 <__sprint_r>
 800394c:	103bb21e 	bne	r2,zero,8002818 <__alt_data_end+0xfc002818>
 8003950:	d8c12017 	ldw	r3,1152(sp)
 8003954:	d8811f17 	ldw	r2,1148(sp)
 8003958:	da000404 	addi	r8,sp,16
 800395c:	003fee06 	br	8003918 <__alt_data_end+0xfc003918>
 8003960:	e088703a 	and	r4,fp,r2
 8003964:	203ec01e 	bne	r4,zero,8003468 <__alt_data_end+0xfc003468>
 8003968:	dc011f17 	ldw	r16,1148(sp)
 800396c:	d9013117 	ldw	r4,1220(sp)
 8003970:	40800115 	stw	r2,4(r8)
 8003974:	84000044 	addi	r16,r16,1
 8003978:	41000015 	stw	r4,0(r8)
 800397c:	d8c12015 	stw	r3,1152(sp)
 8003980:	dc011f15 	stw	r16,1148(sp)
 8003984:	008001c4 	movi	r2,7
 8003988:	14000e16 	blt	r2,r16,80039c4 <___vfprintf_internal_r+0x160c>
 800398c:	44400204 	addi	r17,r8,8
 8003990:	003ee006 	br	8003514 <__alt_data_end+0xfc003514>
 8003994:	01020074 	movhi	r4,2049
 8003998:	2101f784 	addi	r4,r4,2014
 800399c:	d9012c15 	stw	r4,1200(sp)
 80039a0:	d8812c17 	ldw	r2,1200(sp)
 80039a4:	1cc7883a 	add	r3,r3,r19
 80039a8:	84000044 	addi	r16,r16,1
 80039ac:	88800015 	stw	r2,0(r17)
 80039b0:	8cc00115 	stw	r19,4(r17)
 80039b4:	d8c12015 	stw	r3,1152(sp)
 80039b8:	dc011f15 	stw	r16,1148(sp)
 80039bc:	008001c4 	movi	r2,7
 80039c0:	143ed30e 	bge	r2,r16,8003510 <__alt_data_end+0xfc003510>
 80039c4:	b809883a 	mov	r4,r23
 80039c8:	b00b883a 	mov	r5,r22
 80039cc:	d9811e04 	addi	r6,sp,1144
 80039d0:	80099600 	call	8009960 <__sprint_r>
 80039d4:	103b901e 	bne	r2,zero,8002818 <__alt_data_end+0xfc002818>
 80039d8:	d8c12017 	ldw	r3,1152(sp)
 80039dc:	dc011f17 	ldw	r16,1148(sp)
 80039e0:	dc400404 	addi	r17,sp,16
 80039e4:	003ecb06 	br	8003514 <__alt_data_end+0xfc003514>
 80039e8:	b809883a 	mov	r4,r23
 80039ec:	b00b883a 	mov	r5,r22
 80039f0:	d9811e04 	addi	r6,sp,1144
 80039f4:	80099600 	call	8009960 <__sprint_r>
 80039f8:	103b871e 	bne	r2,zero,8002818 <__alt_data_end+0xfc002818>
 80039fc:	d8c12017 	ldw	r3,1152(sp)
 8003a00:	dc011f17 	ldw	r16,1148(sp)
 8003a04:	da000404 	addi	r8,sp,16
 8003a08:	003ea206 	br	8003494 <__alt_data_end+0xfc003494>
 8003a0c:	b809883a 	mov	r4,r23
 8003a10:	b00b883a 	mov	r5,r22
 8003a14:	d9811e04 	addi	r6,sp,1144
 8003a18:	80099600 	call	8009960 <__sprint_r>
 8003a1c:	103b7e1e 	bne	r2,zero,8002818 <__alt_data_end+0xfc002818>
 8003a20:	d8c12017 	ldw	r3,1152(sp)
 8003a24:	dc011f17 	ldw	r16,1148(sp)
 8003a28:	dc400404 	addi	r17,sp,16
 8003a2c:	003ea406 	br	80034c0 <__alt_data_end+0xfc0034c0>
 8003a30:	b809883a 	mov	r4,r23
 8003a34:	b00b883a 	mov	r5,r22
 8003a38:	d9811e04 	addi	r6,sp,1144
 8003a3c:	80099600 	call	8009960 <__sprint_r>
 8003a40:	103b751e 	bne	r2,zero,8002818 <__alt_data_end+0xfc002818>
 8003a44:	d8c12017 	ldw	r3,1152(sp)
 8003a48:	da000404 	addi	r8,sp,16
 8003a4c:	003c3706 	br	8002b2c <__alt_data_end+0xfc002b2c>
 8003a50:	04a5c83a 	sub	r18,zero,r18
 8003a54:	9004c03a 	cmpne	r2,r18,zero
 8003a58:	056bc83a 	sub	r21,zero,r21
 8003a5c:	a8abc83a 	sub	r21,r21,r2
 8003a60:	04c00b44 	movi	r19,45
 8003a64:	dcc12785 	stb	r19,1182(sp)
 8003a68:	da413215 	stw	r9,1224(sp)
 8003a6c:	00800044 	movi	r2,1
 8003a70:	9546b03a 	or	r3,r18,r21
 8003a74:	003bb106 	br	800293c <__alt_data_end+0xfc00293c>
 8003a78:	da013f15 	stw	r8,1276(sp)
 8003a7c:	da413e15 	stw	r9,1272(sp)
 8003a80:	80095bc0 	call	80095bc <__fpclassifyd>
 8003a84:	da013f17 	ldw	r8,1276(sp)
 8003a88:	da413e17 	ldw	r9,1272(sp)
 8003a8c:	1000e526 	beq	r2,zero,8003e24 <___vfprintf_internal_r+0x1a6c>
 8003a90:	04fff7c4 	movi	r19,-33
 8003a94:	00bfffc4 	movi	r2,-1
 8003a98:	84e6703a 	and	r19,r16,r19
 8003a9c:	48822926 	beq	r9,r2,8004344 <___vfprintf_internal_r+0x1f8c>
 8003aa0:	008011c4 	movi	r2,71
 8003aa4:	98821626 	beq	r19,r2,8004300 <___vfprintf_internal_r+0x1f48>
 8003aa8:	d9013917 	ldw	r4,1252(sp)
 8003aac:	e0c04014 	ori	r3,fp,256
 8003ab0:	d8c12d15 	stw	r3,1204(sp)
 8003ab4:	20021f16 	blt	r4,zero,8004334 <___vfprintf_internal_r+0x1f7c>
 8003ab8:	dc413917 	ldw	r17,1252(sp)
 8003abc:	d8012b05 	stb	zero,1196(sp)
 8003ac0:	00801984 	movi	r2,102
 8003ac4:	80814d26 	beq	r16,r2,8003ffc <___vfprintf_internal_r+0x1c44>
 8003ac8:	00801184 	movi	r2,70
 8003acc:	80814b26 	beq	r16,r2,8003ffc <___vfprintf_internal_r+0x1c44>
 8003ad0:	00801144 	movi	r2,69
 8003ad4:	98821d26 	beq	r19,r2,800434c <___vfprintf_internal_r+0x1f94>
 8003ad8:	482b883a 	mov	r21,r9
 8003adc:	d8812604 	addi	r2,sp,1176
 8003ae0:	d8800115 	stw	r2,4(sp)
 8003ae4:	d9413717 	ldw	r5,1244(sp)
 8003ae8:	d8812504 	addi	r2,sp,1172
 8003aec:	d8800215 	stw	r2,8(sp)
 8003af0:	d8812104 	addi	r2,sp,1156
 8003af4:	dd400015 	stw	r21,0(sp)
 8003af8:	d8800315 	stw	r2,12(sp)
 8003afc:	b809883a 	mov	r4,r23
 8003b00:	880d883a 	mov	r6,r17
 8003b04:	01c00084 	movi	r7,2
 8003b08:	da013f15 	stw	r8,1276(sp)
 8003b0c:	da413e15 	stw	r9,1272(sp)
 8003b10:	80048300 	call	8004830 <_dtoa_r>
 8003b14:	d8813115 	stw	r2,1220(sp)
 8003b18:	008019c4 	movi	r2,103
 8003b1c:	da013f17 	ldw	r8,1276(sp)
 8003b20:	da413e17 	ldw	r9,1272(sp)
 8003b24:	80800226 	beq	r16,r2,8003b30 <___vfprintf_internal_r+0x1778>
 8003b28:	008011c4 	movi	r2,71
 8003b2c:	8081451e 	bne	r16,r2,8004044 <___vfprintf_internal_r+0x1c8c>
 8003b30:	e080004c 	andi	r2,fp,1
 8003b34:	10021e26 	beq	r2,zero,80043b0 <___vfprintf_internal_r+0x1ff8>
 8003b38:	d8c13117 	ldw	r3,1220(sp)
 8003b3c:	1d55883a 	add	r10,r3,r21
 8003b40:	d9013717 	ldw	r4,1244(sp)
 8003b44:	880b883a 	mov	r5,r17
 8003b48:	000d883a 	mov	r6,zero
 8003b4c:	000f883a 	mov	r7,zero
 8003b50:	da013f15 	stw	r8,1276(sp)
 8003b54:	da413e15 	stw	r9,1272(sp)
 8003b58:	da813d15 	stw	r10,1268(sp)
 8003b5c:	800cc040 	call	800cc04 <__eqdf2>
 8003b60:	da013f17 	ldw	r8,1276(sp)
 8003b64:	da413e17 	ldw	r9,1272(sp)
 8003b68:	da813d17 	ldw	r10,1268(sp)
 8003b6c:	1001a126 	beq	r2,zero,80041f4 <___vfprintf_internal_r+0x1e3c>
 8003b70:	d8812117 	ldw	r2,1156(sp)
 8003b74:	1280062e 	bgeu	r2,r10,8003b90 <___vfprintf_internal_r+0x17d8>
 8003b78:	01000c04 	movi	r4,48
 8003b7c:	10c00044 	addi	r3,r2,1
 8003b80:	d8c12115 	stw	r3,1156(sp)
 8003b84:	11000005 	stb	r4,0(r2)
 8003b88:	d8812117 	ldw	r2,1156(sp)
 8003b8c:	12bffb36 	bltu	r2,r10,8003b7c <__alt_data_end+0xfc003b7c>
 8003b90:	d8c13117 	ldw	r3,1220(sp)
 8003b94:	10c5c83a 	sub	r2,r2,r3
 8003b98:	d8813315 	stw	r2,1228(sp)
 8003b9c:	008011c4 	movi	r2,71
 8003ba0:	98818926 	beq	r19,r2,80041c8 <___vfprintf_internal_r+0x1e10>
 8003ba4:	00801944 	movi	r2,101
 8003ba8:	14023c0e 	bge	r2,r16,800449c <___vfprintf_internal_r+0x20e4>
 8003bac:	d8c12617 	ldw	r3,1176(sp)
 8003bb0:	00801984 	movi	r2,102
 8003bb4:	d8c13415 	stw	r3,1232(sp)
 8003bb8:	8081ef26 	beq	r16,r2,8004378 <___vfprintf_internal_r+0x1fc0>
 8003bbc:	d8c13417 	ldw	r3,1232(sp)
 8003bc0:	d9013317 	ldw	r4,1228(sp)
 8003bc4:	1901e316 	blt	r3,r4,8004354 <___vfprintf_internal_r+0x1f9c>
 8003bc8:	e080004c 	andi	r2,fp,1
 8003bcc:	1001f426 	beq	r2,zero,80043a0 <___vfprintf_internal_r+0x1fe8>
 8003bd0:	d8c13417 	ldw	r3,1232(sp)
 8003bd4:	1c400044 	addi	r17,r3,1
 8003bd8:	8839883a 	mov	fp,r17
 8003bdc:	8801e416 	blt	r17,zero,8004370 <___vfprintf_internal_r+0x1fb8>
 8003be0:	dd412b07 	ldb	r21,1196(sp)
 8003be4:	a801701e 	bne	r21,zero,80041a8 <___vfprintf_internal_r+0x1df0>
 8003be8:	df012b15 	stw	fp,1196(sp)
 8003bec:	dcc12783 	ldbu	r19,1182(sp)
 8003bf0:	df012d17 	ldw	fp,1204(sp)
 8003bf4:	d8013215 	stw	zero,1224(sp)
 8003bf8:	dc812d15 	stw	r18,1204(sp)
 8003bfc:	003b6e06 	br	80029b8 <__alt_data_end+0xfc0029b8>
 8003c00:	e080040c 	andi	r2,fp,16
 8003c04:	1000b51e 	bne	r2,zero,8003edc <___vfprintf_internal_r+0x1b24>
 8003c08:	e080100c 	andi	r2,fp,64
 8003c0c:	10015b26 	beq	r2,zero,800417c <___vfprintf_internal_r+0x1dc4>
 8003c10:	d9012d17 	ldw	r4,1204(sp)
 8003c14:	d9412f17 	ldw	r5,1212(sp)
 8003c18:	20800017 	ldw	r2,0(r4)
 8003c1c:	21000104 	addi	r4,r4,4
 8003c20:	d9012d15 	stw	r4,1204(sp)
 8003c24:	1140000d 	sth	r5,0(r2)
 8003c28:	003a2006 	br	80024ac <__alt_data_end+0xfc0024ac>
 8003c2c:	e0c0100c 	andi	r3,fp,64
 8003c30:	1800a226 	beq	r3,zero,8003ebc <___vfprintf_internal_r+0x1b04>
 8003c34:	d8c12d17 	ldw	r3,1204(sp)
 8003c38:	1480000b 	ldhu	r18,0(r2)
 8003c3c:	002b883a 	mov	r21,zero
 8003c40:	18c00104 	addi	r3,r3,4
 8003c44:	d8c12d15 	stw	r3,1204(sp)
 8003c48:	0005883a 	mov	r2,zero
 8003c4c:	9007883a 	mov	r3,r18
 8003c50:	003c6906 	br	8002df8 <__alt_data_end+0xfc002df8>
 8003c54:	e0c0100c 	andi	r3,fp,64
 8003c58:	18009026 	beq	r3,zero,8003e9c <___vfprintf_internal_r+0x1ae4>
 8003c5c:	1480000b 	ldhu	r18,0(r2)
 8003c60:	d8812d17 	ldw	r2,1204(sp)
 8003c64:	002b883a 	mov	r21,zero
 8003c68:	9007883a 	mov	r3,r18
 8003c6c:	10800104 	addi	r2,r2,4
 8003c70:	d8812d15 	stw	r2,1204(sp)
 8003c74:	00800044 	movi	r2,1
 8003c78:	003c5f06 	br	8002df8 <__alt_data_end+0xfc002df8>
 8003c7c:	e0c0100c 	andi	r3,fp,64
 8003c80:	18008026 	beq	r3,zero,8003e84 <___vfprintf_internal_r+0x1acc>
 8003c84:	d9012d17 	ldw	r4,1204(sp)
 8003c88:	1480000b 	ldhu	r18,0(r2)
 8003c8c:	002b883a 	mov	r21,zero
 8003c90:	21000104 	addi	r4,r4,4
 8003c94:	d9012d15 	stw	r4,1204(sp)
 8003c98:	003c7906 	br	8002e80 <__alt_data_end+0xfc002e80>
 8003c9c:	e080100c 	andi	r2,fp,64
 8003ca0:	10007126 	beq	r2,zero,8003e68 <___vfprintf_internal_r+0x1ab0>
 8003ca4:	1c80000f 	ldh	r18,0(r3)
 8003ca8:	d8812d17 	ldw	r2,1204(sp)
 8003cac:	902bd7fa 	srai	r21,r18,31
 8003cb0:	10800104 	addi	r2,r2,4
 8003cb4:	d8812d15 	stw	r2,1204(sp)
 8003cb8:	a805883a 	mov	r2,r21
 8003cbc:	003b1a06 	br	8002928 <__alt_data_end+0xfc002928>
 8003cc0:	e4000007 	ldb	r16,0(fp)
 8003cc4:	e005883a 	mov	r2,fp
 8003cc8:	003a2306 	br	8002558 <__alt_data_end+0xfc002558>
 8003ccc:	00800084 	movi	r2,2
 8003cd0:	003c4906 	br	8002df8 <__alt_data_end+0xfc002df8>
 8003cd4:	01020074 	movhi	r4,2049
 8003cd8:	2101f784 	addi	r4,r4,2014
 8003cdc:	d9012c15 	stw	r4,1200(sp)
 8003ce0:	d9012c17 	ldw	r4,1200(sp)
 8003ce4:	1c47883a 	add	r3,r3,r17
 8003ce8:	10800044 	addi	r2,r2,1
 8003cec:	41000015 	stw	r4,0(r8)
 8003cf0:	44400115 	stw	r17,4(r8)
 8003cf4:	d8c12015 	stw	r3,1152(sp)
 8003cf8:	d8811f15 	stw	r2,1148(sp)
 8003cfc:	010001c4 	movi	r4,7
 8003d00:	20becc16 	blt	r4,r2,8003834 <__alt_data_end+0xfc003834>
 8003d04:	42000204 	addi	r8,r8,8
 8003d08:	003ed106 	br	8003850 <__alt_data_end+0xfc003850>
 8003d0c:	01020074 	movhi	r4,2049
 8003d10:	2101f784 	addi	r4,r4,2014
 8003d14:	d9012c15 	stw	r4,1200(sp)
 8003d18:	003ba306 	br	8002ba8 <__alt_data_end+0xfc002ba8>
 8003d1c:	b809883a 	mov	r4,r23
 8003d20:	b00b883a 	mov	r5,r22
 8003d24:	d9811e04 	addi	r6,sp,1144
 8003d28:	80099600 	call	8009960 <__sprint_r>
 8003d2c:	103aba1e 	bne	r2,zero,8002818 <__alt_data_end+0xfc002818>
 8003d30:	d8c12017 	ldw	r3,1152(sp)
 8003d34:	da000404 	addi	r8,sp,16
 8003d38:	003d6c06 	br	80032ec <__alt_data_end+0xfc0032ec>
 8003d3c:	d8811f17 	ldw	r2,1148(sp)
 8003d40:	01420074 	movhi	r5,2049
 8003d44:	01000044 	movi	r4,1
 8003d48:	18c00044 	addi	r3,r3,1
 8003d4c:	10800044 	addi	r2,r2,1
 8003d50:	2941f704 	addi	r5,r5,2012
 8003d54:	41000115 	stw	r4,4(r8)
 8003d58:	41400015 	stw	r5,0(r8)
 8003d5c:	d8c12015 	stw	r3,1152(sp)
 8003d60:	d8811f15 	stw	r2,1148(sp)
 8003d64:	010001c4 	movi	r4,7
 8003d68:	20806716 	blt	r4,r2,8003f08 <___vfprintf_internal_r+0x1b50>
 8003d6c:	42000204 	addi	r8,r8,8
 8003d70:	8000041e 	bne	r16,zero,8003d84 <___vfprintf_internal_r+0x19cc>
 8003d74:	d8813317 	ldw	r2,1228(sp)
 8003d78:	1000021e 	bne	r2,zero,8003d84 <___vfprintf_internal_r+0x19cc>
 8003d7c:	e080004c 	andi	r2,fp,1
 8003d80:	103ba026 	beq	r2,zero,8002c04 <__alt_data_end+0xfc002c04>
 8003d84:	d9013817 	ldw	r4,1248(sp)
 8003d88:	d8811f17 	ldw	r2,1148(sp)
 8003d8c:	d9413517 	ldw	r5,1236(sp)
 8003d90:	1907883a 	add	r3,r3,r4
 8003d94:	10800044 	addi	r2,r2,1
 8003d98:	41000115 	stw	r4,4(r8)
 8003d9c:	41400015 	stw	r5,0(r8)
 8003da0:	d8c12015 	stw	r3,1152(sp)
 8003da4:	d8811f15 	stw	r2,1148(sp)
 8003da8:	010001c4 	movi	r4,7
 8003dac:	20815716 	blt	r4,r2,800430c <___vfprintf_internal_r+0x1f54>
 8003db0:	42000204 	addi	r8,r8,8
 8003db4:	0421c83a 	sub	r16,zero,r16
 8003db8:	0400810e 	bge	zero,r16,8003fc0 <___vfprintf_internal_r+0x1c08>
 8003dbc:	04400404 	movi	r17,16
 8003dc0:	8c00bd0e 	bge	r17,r16,80040b8 <___vfprintf_internal_r+0x1d00>
 8003dc4:	01420074 	movhi	r5,2049
 8003dc8:	2941f784 	addi	r5,r5,2014
 8003dcc:	d9412c15 	stw	r5,1200(sp)
 8003dd0:	04c001c4 	movi	r19,7
 8003dd4:	00000306 	br	8003de4 <___vfprintf_internal_r+0x1a2c>
 8003dd8:	42000204 	addi	r8,r8,8
 8003ddc:	843ffc04 	addi	r16,r16,-16
 8003de0:	8c00b80e 	bge	r17,r16,80040c4 <___vfprintf_internal_r+0x1d0c>
 8003de4:	18c00404 	addi	r3,r3,16
 8003de8:	10800044 	addi	r2,r2,1
 8003dec:	45000015 	stw	r20,0(r8)
 8003df0:	44400115 	stw	r17,4(r8)
 8003df4:	d8c12015 	stw	r3,1152(sp)
 8003df8:	d8811f15 	stw	r2,1148(sp)
 8003dfc:	98bff60e 	bge	r19,r2,8003dd8 <__alt_data_end+0xfc003dd8>
 8003e00:	b809883a 	mov	r4,r23
 8003e04:	b00b883a 	mov	r5,r22
 8003e08:	d9811e04 	addi	r6,sp,1144
 8003e0c:	80099600 	call	8009960 <__sprint_r>
 8003e10:	103a811e 	bne	r2,zero,8002818 <__alt_data_end+0xfc002818>
 8003e14:	d8c12017 	ldw	r3,1152(sp)
 8003e18:	d8811f17 	ldw	r2,1148(sp)
 8003e1c:	da000404 	addi	r8,sp,16
 8003e20:	003fee06 	br	8003ddc <__alt_data_end+0xfc003ddc>
 8003e24:	008011c4 	movi	r2,71
 8003e28:	1400db16 	blt	r2,r16,8004198 <___vfprintf_internal_r+0x1de0>
 8003e2c:	01020074 	movhi	r4,2049
 8003e30:	2101e904 	addi	r4,r4,1956
 8003e34:	d9013115 	stw	r4,1220(sp)
 8003e38:	00c000c4 	movi	r3,3
 8003e3c:	00bfdfc4 	movi	r2,-129
 8003e40:	d8c12b15 	stw	r3,1196(sp)
 8003e44:	e0b8703a 	and	fp,fp,r2
 8003e48:	dcc12783 	ldbu	r19,1182(sp)
 8003e4c:	dc812d15 	stw	r18,1204(sp)
 8003e50:	1823883a 	mov	r17,r3
 8003e54:	d8013215 	stw	zero,1224(sp)
 8003e58:	d8013415 	stw	zero,1232(sp)
 8003e5c:	003ad606 	br	80029b8 <__alt_data_end+0xfc0029b8>
 8003e60:	4823883a 	mov	r17,r9
 8003e64:	003cc906 	br	800318c <__alt_data_end+0xfc00318c>
 8003e68:	1c800017 	ldw	r18,0(r3)
 8003e6c:	d8c12d17 	ldw	r3,1204(sp)
 8003e70:	902bd7fa 	srai	r21,r18,31
 8003e74:	18c00104 	addi	r3,r3,4
 8003e78:	d8c12d15 	stw	r3,1204(sp)
 8003e7c:	a805883a 	mov	r2,r21
 8003e80:	003aa906 	br	8002928 <__alt_data_end+0xfc002928>
 8003e84:	d9412d17 	ldw	r5,1204(sp)
 8003e88:	14800017 	ldw	r18,0(r2)
 8003e8c:	002b883a 	mov	r21,zero
 8003e90:	29400104 	addi	r5,r5,4
 8003e94:	d9412d15 	stw	r5,1204(sp)
 8003e98:	003bf906 	br	8002e80 <__alt_data_end+0xfc002e80>
 8003e9c:	d8c12d17 	ldw	r3,1204(sp)
 8003ea0:	14800017 	ldw	r18,0(r2)
 8003ea4:	002b883a 	mov	r21,zero
 8003ea8:	18c00104 	addi	r3,r3,4
 8003eac:	d8c12d15 	stw	r3,1204(sp)
 8003eb0:	00800044 	movi	r2,1
 8003eb4:	9007883a 	mov	r3,r18
 8003eb8:	003bcf06 	br	8002df8 <__alt_data_end+0xfc002df8>
 8003ebc:	d9012d17 	ldw	r4,1204(sp)
 8003ec0:	14800017 	ldw	r18,0(r2)
 8003ec4:	002b883a 	mov	r21,zero
 8003ec8:	21000104 	addi	r4,r4,4
 8003ecc:	d9012d15 	stw	r4,1204(sp)
 8003ed0:	0005883a 	mov	r2,zero
 8003ed4:	9007883a 	mov	r3,r18
 8003ed8:	003bc706 	br	8002df8 <__alt_data_end+0xfc002df8>
 8003edc:	d9412d17 	ldw	r5,1204(sp)
 8003ee0:	d8c12f17 	ldw	r3,1212(sp)
 8003ee4:	28800017 	ldw	r2,0(r5)
 8003ee8:	29400104 	addi	r5,r5,4
 8003eec:	d9412d15 	stw	r5,1204(sp)
 8003ef0:	10c00015 	stw	r3,0(r2)
 8003ef4:	00396d06 	br	80024ac <__alt_data_end+0xfc0024ac>
 8003ef8:	01020074 	movhi	r4,2049
 8003efc:	2101e704 	addi	r4,r4,1948
 8003f00:	d9013115 	stw	r4,1220(sp)
 8003f04:	003ba206 	br	8002d90 <__alt_data_end+0xfc002d90>
 8003f08:	b809883a 	mov	r4,r23
 8003f0c:	b00b883a 	mov	r5,r22
 8003f10:	d9811e04 	addi	r6,sp,1144
 8003f14:	80099600 	call	8009960 <__sprint_r>
 8003f18:	103a3f1e 	bne	r2,zero,8002818 <__alt_data_end+0xfc002818>
 8003f1c:	dc012617 	ldw	r16,1176(sp)
 8003f20:	d8c12017 	ldw	r3,1152(sp)
 8003f24:	da000404 	addi	r8,sp,16
 8003f28:	003f9106 	br	8003d70 <__alt_data_end+0xfc003d70>
 8003f2c:	e0800044 	addi	r2,fp,1
 8003f30:	9cc00814 	ori	r19,r19,32
 8003f34:	e4000047 	ldb	r16,1(fp)
 8003f38:	00398706 	br	8002558 <__alt_data_end+0xfc002558>
 8003f3c:	d8812e17 	ldw	r2,1208(sp)
 8003f40:	d8c12d15 	stw	r3,1204(sp)
 8003f44:	0085c83a 	sub	r2,zero,r2
 8003f48:	d8812e15 	stw	r2,1208(sp)
 8003f4c:	e005883a 	mov	r2,fp
 8003f50:	003a3a06 	br	800283c <__alt_data_end+0xfc00283c>
 8003f54:	b809883a 	mov	r4,r23
 8003f58:	b00b883a 	mov	r5,r22
 8003f5c:	d9811e04 	addi	r6,sp,1144
 8003f60:	80099600 	call	8009960 <__sprint_r>
 8003f64:	103a2c1e 	bne	r2,zero,8002818 <__alt_data_end+0xfc002818>
 8003f68:	d8c12017 	ldw	r3,1152(sp)
 8003f6c:	da000404 	addi	r8,sp,16
 8003f70:	003cf006 	br	8003334 <__alt_data_end+0xfc003334>
 8003f74:	d8c12817 	ldw	r3,1184(sp)
 8003f78:	d9013117 	ldw	r4,1220(sp)
 8003f7c:	1923c83a 	sub	r17,r3,r4
 8003f80:	003a8806 	br	80029a4 <__alt_data_end+0xfc0029a4>
 8003f84:	da013f15 	stw	r8,1276(sp)
 8003f88:	80023200 	call	8002320 <strlen>
 8003f8c:	1023883a 	mov	r17,r2
 8003f90:	da013f17 	ldw	r8,1276(sp)
 8003f94:	883c7f0e 	bge	r17,zero,8003194 <__alt_data_end+0xfc003194>
 8003f98:	0005883a 	mov	r2,zero
 8003f9c:	003c7d06 	br	8003194 <__alt_data_end+0xfc003194>
 8003fa0:	b809883a 	mov	r4,r23
 8003fa4:	b00b883a 	mov	r5,r22
 8003fa8:	d9811e04 	addi	r6,sp,1144
 8003fac:	80099600 	call	8009960 <__sprint_r>
 8003fb0:	103a191e 	bne	r2,zero,8002818 <__alt_data_end+0xfc002818>
 8003fb4:	d8c12017 	ldw	r3,1152(sp)
 8003fb8:	d8811f17 	ldw	r2,1148(sp)
 8003fbc:	da000404 	addi	r8,sp,16
 8003fc0:	d9413317 	ldw	r5,1228(sp)
 8003fc4:	d9013117 	ldw	r4,1220(sp)
 8003fc8:	10800044 	addi	r2,r2,1
 8003fcc:	28c7883a 	add	r3,r5,r3
 8003fd0:	41000015 	stw	r4,0(r8)
 8003fd4:	41400115 	stw	r5,4(r8)
 8003fd8:	d8c12015 	stw	r3,1152(sp)
 8003fdc:	d8811f15 	stw	r2,1148(sp)
 8003fe0:	010001c4 	movi	r4,7
 8003fe4:	20bb060e 	bge	r4,r2,8002c00 <__alt_data_end+0xfc002c00>
 8003fe8:	003d6206 	br	8003574 <__alt_data_end+0xfc003574>
 8003fec:	01020074 	movhi	r4,2049
 8003ff0:	2101fb84 	addi	r4,r4,2030
 8003ff4:	d9013615 	stw	r4,1240(sp)
 8003ff8:	003aa306 	br	8002a88 <__alt_data_end+0xfc002a88>
 8003ffc:	d8812604 	addi	r2,sp,1176
 8004000:	d8800115 	stw	r2,4(sp)
 8004004:	d9413717 	ldw	r5,1244(sp)
 8004008:	d8812504 	addi	r2,sp,1172
 800400c:	d8800215 	stw	r2,8(sp)
 8004010:	d8812104 	addi	r2,sp,1156
 8004014:	da400015 	stw	r9,0(sp)
 8004018:	d8800315 	stw	r2,12(sp)
 800401c:	b809883a 	mov	r4,r23
 8004020:	880d883a 	mov	r6,r17
 8004024:	01c000c4 	movi	r7,3
 8004028:	da013f15 	stw	r8,1276(sp)
 800402c:	da413e15 	stw	r9,1272(sp)
 8004030:	80048300 	call	8004830 <_dtoa_r>
 8004034:	da413e17 	ldw	r9,1272(sp)
 8004038:	da013f17 	ldw	r8,1276(sp)
 800403c:	d8813115 	stw	r2,1220(sp)
 8004040:	482b883a 	mov	r21,r9
 8004044:	d8c13117 	ldw	r3,1220(sp)
 8004048:	00801184 	movi	r2,70
 800404c:	1d55883a 	add	r10,r3,r21
 8004050:	98bebb1e 	bne	r19,r2,8003b40 <__alt_data_end+0xfc003b40>
 8004054:	19000007 	ldb	r4,0(r3)
 8004058:	00800c04 	movi	r2,48
 800405c:	2080dd26 	beq	r4,r2,80043d4 <___vfprintf_internal_r+0x201c>
 8004060:	d8c12617 	ldw	r3,1176(sp)
 8004064:	50d5883a 	add	r10,r10,r3
 8004068:	003eb506 	br	8003b40 <__alt_data_end+0xfc003b40>
 800406c:	0023883a 	mov	r17,zero
 8004070:	003d9b06 	br	80036e0 <__alt_data_end+0xfc0036e0>
 8004074:	b809883a 	mov	r4,r23
 8004078:	b00b883a 	mov	r5,r22
 800407c:	d9811e04 	addi	r6,sp,1144
 8004080:	80099600 	call	8009960 <__sprint_r>
 8004084:	1039e41e 	bne	r2,zero,8002818 <__alt_data_end+0xfc002818>
 8004088:	d8c12017 	ldw	r3,1152(sp)
 800408c:	da000404 	addi	r8,sp,16
 8004090:	003d9206 	br	80036dc <__alt_data_end+0xfc0036dc>
 8004094:	b809883a 	mov	r4,r23
 8004098:	b00b883a 	mov	r5,r22
 800409c:	d9811e04 	addi	r6,sp,1144
 80040a0:	80099600 	call	8009960 <__sprint_r>
 80040a4:	1039dc1e 	bne	r2,zero,8002818 <__alt_data_end+0xfc002818>
 80040a8:	d8812617 	ldw	r2,1176(sp)
 80040ac:	d8c12017 	ldw	r3,1152(sp)
 80040b0:	da000404 	addi	r8,sp,16
 80040b4:	003dfb06 	br	80038a4 <__alt_data_end+0xfc0038a4>
 80040b8:	01020074 	movhi	r4,2049
 80040bc:	2101f784 	addi	r4,r4,2014
 80040c0:	d9012c15 	stw	r4,1200(sp)
 80040c4:	d9012c17 	ldw	r4,1200(sp)
 80040c8:	1c07883a 	add	r3,r3,r16
 80040cc:	10800044 	addi	r2,r2,1
 80040d0:	41000015 	stw	r4,0(r8)
 80040d4:	44000115 	stw	r16,4(r8)
 80040d8:	d8c12015 	stw	r3,1152(sp)
 80040dc:	d8811f15 	stw	r2,1148(sp)
 80040e0:	010001c4 	movi	r4,7
 80040e4:	20bfae16 	blt	r4,r2,8003fa0 <__alt_data_end+0xfc003fa0>
 80040e8:	42000204 	addi	r8,r8,8
 80040ec:	003fb406 	br	8003fc0 <__alt_data_end+0xfc003fc0>
 80040f0:	0021883a 	mov	r16,zero
 80040f4:	003dfd06 	br	80038ec <__alt_data_end+0xfc0038ec>
 80040f8:	01420074 	movhi	r5,2049
 80040fc:	2941fb84 	addi	r5,r5,2030
 8004100:	d9413615 	stw	r5,1240(sp)
 8004104:	003ae306 	br	8002c94 <__alt_data_end+0xfc002c94>
 8004108:	b809883a 	mov	r4,r23
 800410c:	b00b883a 	mov	r5,r22
 8004110:	d9811e04 	addi	r6,sp,1144
 8004114:	80099600 	call	8009960 <__sprint_r>
 8004118:	1039bf1e 	bne	r2,zero,8002818 <__alt_data_end+0xfc002818>
 800411c:	d8812617 	ldw	r2,1176(sp)
 8004120:	d9413317 	ldw	r5,1228(sp)
 8004124:	d8c12017 	ldw	r3,1152(sp)
 8004128:	da000404 	addi	r8,sp,16
 800412c:	2885c83a 	sub	r2,r5,r2
 8004130:	003ded06 	br	80038e8 <__alt_data_end+0xfc0038e8>
 8004134:	00800184 	movi	r2,6
 8004138:	1240012e 	bgeu	r2,r9,8004140 <___vfprintf_internal_r+0x1d88>
 800413c:	1013883a 	mov	r9,r2
 8004140:	4823883a 	mov	r17,r9
 8004144:	4805883a 	mov	r2,r9
 8004148:	4800b216 	blt	r9,zero,8004414 <___vfprintf_internal_r+0x205c>
 800414c:	01420074 	movhi	r5,2049
 8004150:	2941f504 	addi	r5,r5,2004
 8004154:	d8812b15 	stw	r2,1196(sp)
 8004158:	dc812d15 	stw	r18,1204(sp)
 800415c:	d8013215 	stw	zero,1224(sp)
 8004160:	d8013415 	stw	zero,1232(sp)
 8004164:	d9413115 	stw	r5,1220(sp)
 8004168:	0005883a 	mov	r2,zero
 800416c:	003a1906 	br	80029d4 <__alt_data_end+0xfc0029d4>
 8004170:	04c00b44 	movi	r19,45
 8004174:	dcc12785 	stb	r19,1182(sp)
 8004178:	003b0006 	br	8002d7c <__alt_data_end+0xfc002d7c>
 800417c:	d8c12d17 	ldw	r3,1204(sp)
 8004180:	d9012f17 	ldw	r4,1212(sp)
 8004184:	18800017 	ldw	r2,0(r3)
 8004188:	18c00104 	addi	r3,r3,4
 800418c:	d8c12d15 	stw	r3,1204(sp)
 8004190:	11000015 	stw	r4,0(r2)
 8004194:	0038c506 	br	80024ac <__alt_data_end+0xfc0024ac>
 8004198:	01420074 	movhi	r5,2049
 800419c:	2941ea04 	addi	r5,r5,1960
 80041a0:	d9413115 	stw	r5,1220(sp)
 80041a4:	003f2406 	br	8003e38 <__alt_data_end+0xfc003e38>
 80041a8:	00800b44 	movi	r2,45
 80041ac:	d8812785 	stb	r2,1182(sp)
 80041b0:	df012b15 	stw	fp,1196(sp)
 80041b4:	d8013215 	stw	zero,1224(sp)
 80041b8:	df012d17 	ldw	fp,1204(sp)
 80041bc:	00800b44 	movi	r2,45
 80041c0:	dc812d15 	stw	r18,1204(sp)
 80041c4:	003a0006 	br	80029c8 <__alt_data_end+0xfc0029c8>
 80041c8:	d8c12617 	ldw	r3,1176(sp)
 80041cc:	00bfff44 	movi	r2,-3
 80041d0:	18800a16 	blt	r3,r2,80041fc <___vfprintf_internal_r+0x1e44>
 80041d4:	48c00916 	blt	r9,r3,80041fc <___vfprintf_internal_r+0x1e44>
 80041d8:	d8c13415 	stw	r3,1232(sp)
 80041dc:	040019c4 	movi	r16,103
 80041e0:	003e7606 	br	8003bbc <__alt_data_end+0xfc003bbc>
 80041e4:	01020074 	movhi	r4,2049
 80041e8:	2101f784 	addi	r4,r4,2014
 80041ec:	d9012c15 	stw	r4,1200(sp)
 80041f0:	003c8e06 	br	800342c <__alt_data_end+0xfc00342c>
 80041f4:	5005883a 	mov	r2,r10
 80041f8:	003e6506 	br	8003b90 <__alt_data_end+0xfc003b90>
 80041fc:	843fff84 	addi	r16,r16,-2
 8004200:	1d7fffc4 	addi	r21,r3,-1
 8004204:	dd412615 	stw	r21,1176(sp)
 8004208:	dc0122c5 	stb	r16,1163(sp)
 800420c:	a8009216 	blt	r21,zero,8004458 <___vfprintf_internal_r+0x20a0>
 8004210:	00800ac4 	movi	r2,43
 8004214:	d8812305 	stb	r2,1164(sp)
 8004218:	00800244 	movi	r2,9
 800421c:	1540660e 	bge	r2,r21,80043b8 <___vfprintf_internal_r+0x2000>
 8004220:	dcc122c4 	addi	r19,sp,1163
 8004224:	dc012c15 	stw	r16,1200(sp)
 8004228:	4023883a 	mov	r17,r8
 800422c:	9821883a 	mov	r16,r19
 8004230:	a809883a 	mov	r4,r21
 8004234:	01400284 	movi	r5,10
 8004238:	80021380 	call	8002138 <__modsi3>
 800423c:	10800c04 	addi	r2,r2,48
 8004240:	843fffc4 	addi	r16,r16,-1
 8004244:	a809883a 	mov	r4,r21
 8004248:	01400284 	movi	r5,10
 800424c:	80800005 	stb	r2,0(r16)
 8004250:	80020e40 	call	80020e4 <__divsi3>
 8004254:	01000244 	movi	r4,9
 8004258:	102b883a 	mov	r21,r2
 800425c:	20bff416 	blt	r4,r2,8004230 <__alt_data_end+0xfc004230>
 8004260:	8811883a 	mov	r8,r17
 8004264:	10800c04 	addi	r2,r2,48
 8004268:	8023883a 	mov	r17,r16
 800426c:	897fffc4 	addi	r5,r17,-1
 8004270:	88bfffc5 	stb	r2,-1(r17)
 8004274:	dc012c17 	ldw	r16,1200(sp)
 8004278:	2cc08a2e 	bgeu	r5,r19,80044a4 <___vfprintf_internal_r+0x20ec>
 800427c:	d9812384 	addi	r6,sp,1166
 8004280:	344dc83a 	sub	r6,r6,r17
 8004284:	d9012344 	addi	r4,sp,1165
 8004288:	998d883a 	add	r6,r19,r6
 800428c:	00000106 	br	8004294 <___vfprintf_internal_r+0x1edc>
 8004290:	28800003 	ldbu	r2,0(r5)
 8004294:	20800005 	stb	r2,0(r4)
 8004298:	21000044 	addi	r4,r4,1
 800429c:	29400044 	addi	r5,r5,1
 80042a0:	21bffb1e 	bne	r4,r6,8004290 <__alt_data_end+0xfc004290>
 80042a4:	d8812304 	addi	r2,sp,1164
 80042a8:	1445c83a 	sub	r2,r2,r17
 80042ac:	d9412344 	addi	r5,sp,1165
 80042b0:	2885883a 	add	r2,r5,r2
 80042b4:	14e7c83a 	sub	r19,r2,r19
 80042b8:	d8813317 	ldw	r2,1228(sp)
 80042bc:	d8c13317 	ldw	r3,1228(sp)
 80042c0:	dcc13a15 	stw	r19,1256(sp)
 80042c4:	14e3883a 	add	r17,r2,r19
 80042c8:	00800044 	movi	r2,1
 80042cc:	10c0550e 	bge	r2,r3,8004424 <___vfprintf_internal_r+0x206c>
 80042d0:	8c400044 	addi	r17,r17,1
 80042d4:	8839883a 	mov	fp,r17
 80042d8:	88005016 	blt	r17,zero,800441c <___vfprintf_internal_r+0x2064>
 80042dc:	d8013415 	stw	zero,1232(sp)
 80042e0:	003e3f06 	br	8003be0 <__alt_data_end+0xfc003be0>
 80042e4:	da412b15 	stw	r9,1196(sp)
 80042e8:	dcc12783 	ldbu	r19,1182(sp)
 80042ec:	4823883a 	mov	r17,r9
 80042f0:	dc812d15 	stw	r18,1204(sp)
 80042f4:	d8013215 	stw	zero,1224(sp)
 80042f8:	d8013415 	stw	zero,1232(sp)
 80042fc:	0039ae06 	br	80029b8 <__alt_data_end+0xfc0029b8>
 8004300:	483de91e 	bne	r9,zero,8003aa8 <__alt_data_end+0xfc003aa8>
 8004304:	8813883a 	mov	r9,r17
 8004308:	003de706 	br	8003aa8 <__alt_data_end+0xfc003aa8>
 800430c:	b809883a 	mov	r4,r23
 8004310:	b00b883a 	mov	r5,r22
 8004314:	d9811e04 	addi	r6,sp,1144
 8004318:	80099600 	call	8009960 <__sprint_r>
 800431c:	10393e1e 	bne	r2,zero,8002818 <__alt_data_end+0xfc002818>
 8004320:	dc012617 	ldw	r16,1176(sp)
 8004324:	d8c12017 	ldw	r3,1152(sp)
 8004328:	d8811f17 	ldw	r2,1148(sp)
 800432c:	da000404 	addi	r8,sp,16
 8004330:	003ea006 	br	8003db4 <__alt_data_end+0xfc003db4>
 8004334:	00c00b44 	movi	r3,45
 8004338:	2460003c 	xorhi	r17,r4,32768
 800433c:	d8c12b05 	stb	r3,1196(sp)
 8004340:	003ddf06 	br	8003ac0 <__alt_data_end+0xfc003ac0>
 8004344:	02400184 	movi	r9,6
 8004348:	003dd706 	br	8003aa8 <__alt_data_end+0xfc003aa8>
 800434c:	4d400044 	addi	r21,r9,1
 8004350:	003de206 	br	8003adc <__alt_data_end+0xfc003adc>
 8004354:	d8c13417 	ldw	r3,1232(sp)
 8004358:	00c0490e 	bge	zero,r3,8004480 <___vfprintf_internal_r+0x20c8>
 800435c:	04400044 	movi	r17,1
 8004360:	d9013317 	ldw	r4,1228(sp)
 8004364:	8923883a 	add	r17,r17,r4
 8004368:	8839883a 	mov	fp,r17
 800436c:	883e1c0e 	bge	r17,zero,8003be0 <__alt_data_end+0xfc003be0>
 8004370:	0039883a 	mov	fp,zero
 8004374:	003e1a06 	br	8003be0 <__alt_data_end+0xfc003be0>
 8004378:	00c03b0e 	bge	zero,r3,8004468 <___vfprintf_internal_r+0x20b0>
 800437c:	4800021e 	bne	r9,zero,8004388 <___vfprintf_internal_r+0x1fd0>
 8004380:	e080004c 	andi	r2,fp,1
 8004384:	10000626 	beq	r2,zero,80043a0 <___vfprintf_internal_r+0x1fe8>
 8004388:	d8c13417 	ldw	r3,1232(sp)
 800438c:	4a400044 	addi	r9,r9,1
 8004390:	1a63883a 	add	r17,r3,r9
 8004394:	8839883a 	mov	fp,r17
 8004398:	883e110e 	bge	r17,zero,8003be0 <__alt_data_end+0xfc003be0>
 800439c:	003ff406 	br	8004370 <__alt_data_end+0xfc004370>
 80043a0:	1839883a 	mov	fp,r3
 80043a4:	18004116 	blt	r3,zero,80044ac <___vfprintf_internal_r+0x20f4>
 80043a8:	dc413417 	ldw	r17,1232(sp)
 80043ac:	003e0c06 	br	8003be0 <__alt_data_end+0xfc003be0>
 80043b0:	d8812117 	ldw	r2,1156(sp)
 80043b4:	003df606 	br	8003b90 <__alt_data_end+0xfc003b90>
 80043b8:	00800c04 	movi	r2,48
 80043bc:	a8c00c04 	addi	r3,r21,48
 80043c0:	d8812345 	stb	r2,1165(sp)
 80043c4:	d8c12385 	stb	r3,1166(sp)
 80043c8:	d88123c4 	addi	r2,sp,1167
 80043cc:	dcc122c4 	addi	r19,sp,1163
 80043d0:	003fb806 	br	80042b4 <__alt_data_end+0xfc0042b4>
 80043d4:	d9013717 	ldw	r4,1244(sp)
 80043d8:	880b883a 	mov	r5,r17
 80043dc:	000d883a 	mov	r6,zero
 80043e0:	000f883a 	mov	r7,zero
 80043e4:	da013f15 	stw	r8,1276(sp)
 80043e8:	da413e15 	stw	r9,1272(sp)
 80043ec:	da813d15 	stw	r10,1268(sp)
 80043f0:	800cc040 	call	800cc04 <__eqdf2>
 80043f4:	da013f17 	ldw	r8,1276(sp)
 80043f8:	da413e17 	ldw	r9,1272(sp)
 80043fc:	da813d17 	ldw	r10,1268(sp)
 8004400:	103f1726 	beq	r2,zero,8004060 <__alt_data_end+0xfc004060>
 8004404:	00800044 	movi	r2,1
 8004408:	1547c83a 	sub	r3,r2,r21
 800440c:	d8c12615 	stw	r3,1176(sp)
 8004410:	003f1406 	br	8004064 <__alt_data_end+0xfc004064>
 8004414:	0005883a 	mov	r2,zero
 8004418:	003f4c06 	br	800414c <__alt_data_end+0xfc00414c>
 800441c:	0039883a 	mov	fp,zero
 8004420:	003fae06 	br	80042dc <__alt_data_end+0xfc0042dc>
 8004424:	e084703a 	and	r2,fp,r2
 8004428:	103faa26 	beq	r2,zero,80042d4 <__alt_data_end+0xfc0042d4>
 800442c:	003fa806 	br	80042d0 <__alt_data_end+0xfc0042d0>
 8004430:	d9412d17 	ldw	r5,1204(sp)
 8004434:	2a400017 	ldw	r9,0(r5)
 8004438:	28c00104 	addi	r3,r5,4
 800443c:	d8c12d15 	stw	r3,1204(sp)
 8004440:	483ebc0e 	bge	r9,zero,8003f34 <__alt_data_end+0xfc003f34>
 8004444:	027fffc4 	movi	r9,-1
 8004448:	e4000047 	ldb	r16,1(fp)
 800444c:	00384206 	br	8002558 <__alt_data_end+0xfc002558>
 8004450:	043fffc4 	movi	r16,-1
 8004454:	0038ce06 	br	8002790 <__alt_data_end+0xfc002790>
 8004458:	00800b44 	movi	r2,45
 800445c:	056bc83a 	sub	r21,zero,r21
 8004460:	d8812305 	stb	r2,1164(sp)
 8004464:	003f6c06 	br	8004218 <__alt_data_end+0xfc004218>
 8004468:	4800081e 	bne	r9,zero,800448c <___vfprintf_internal_r+0x20d4>
 800446c:	e080004c 	andi	r2,fp,1
 8004470:	1000061e 	bne	r2,zero,800448c <___vfprintf_internal_r+0x20d4>
 8004474:	07000044 	movi	fp,1
 8004478:	e023883a 	mov	r17,fp
 800447c:	003dd806 	br	8003be0 <__alt_data_end+0xfc003be0>
 8004480:	04400084 	movi	r17,2
 8004484:	88e3c83a 	sub	r17,r17,r3
 8004488:	003fb506 	br	8004360 <__alt_data_end+0xfc004360>
 800448c:	4c400084 	addi	r17,r9,2
 8004490:	8839883a 	mov	fp,r17
 8004494:	883dd20e 	bge	r17,zero,8003be0 <__alt_data_end+0xfc003be0>
 8004498:	003fb506 	br	8004370 <__alt_data_end+0xfc004370>
 800449c:	d8c12617 	ldw	r3,1176(sp)
 80044a0:	003f5706 	br	8004200 <__alt_data_end+0xfc004200>
 80044a4:	d8812344 	addi	r2,sp,1165
 80044a8:	003f8206 	br	80042b4 <__alt_data_end+0xfc0042b4>
 80044ac:	0039883a 	mov	fp,zero
 80044b0:	003fbd06 	br	80043a8 <__alt_data_end+0xfc0043a8>

080044b4 <__vfprintf_internal>:
 80044b4:	2007883a 	mov	r3,r4
 80044b8:	01020074 	movhi	r4,2049
 80044bc:	21092304 	addi	r4,r4,9356
 80044c0:	21000017 	ldw	r4,0(r4)
 80044c4:	2805883a 	mov	r2,r5
 80044c8:	300f883a 	mov	r7,r6
 80044cc:	180b883a 	mov	r5,r3
 80044d0:	100d883a 	mov	r6,r2
 80044d4:	80023b81 	jmpi	80023b8 <___vfprintf_internal_r>

080044d8 <__swsetup_r>:
 80044d8:	00820074 	movhi	r2,2049
 80044dc:	defffd04 	addi	sp,sp,-12
 80044e0:	10892304 	addi	r2,r2,9356
 80044e4:	dc400115 	stw	r17,4(sp)
 80044e8:	2023883a 	mov	r17,r4
 80044ec:	11000017 	ldw	r4,0(r2)
 80044f0:	dc000015 	stw	r16,0(sp)
 80044f4:	dfc00215 	stw	ra,8(sp)
 80044f8:	2821883a 	mov	r16,r5
 80044fc:	20000226 	beq	r4,zero,8004508 <__swsetup_r+0x30>
 8004500:	20c00e17 	ldw	r3,56(r4)
 8004504:	18002e26 	beq	r3,zero,80045c0 <__swsetup_r+0xe8>
 8004508:	8080030b 	ldhu	r2,12(r16)
 800450c:	10c0020c 	andi	r3,r2,8
 8004510:	100d883a 	mov	r6,r2
 8004514:	18000f26 	beq	r3,zero,8004554 <__swsetup_r+0x7c>
 8004518:	80c00417 	ldw	r3,16(r16)
 800451c:	18001526 	beq	r3,zero,8004574 <__swsetup_r+0x9c>
 8004520:	1100004c 	andi	r4,r2,1
 8004524:	20001c1e 	bne	r4,zero,8004598 <__swsetup_r+0xc0>
 8004528:	1080008c 	andi	r2,r2,2
 800452c:	1000261e 	bne	r2,zero,80045c8 <__swsetup_r+0xf0>
 8004530:	80800517 	ldw	r2,20(r16)
 8004534:	80800215 	stw	r2,8(r16)
 8004538:	18001c26 	beq	r3,zero,80045ac <__swsetup_r+0xd4>
 800453c:	0005883a 	mov	r2,zero
 8004540:	dfc00217 	ldw	ra,8(sp)
 8004544:	dc400117 	ldw	r17,4(sp)
 8004548:	dc000017 	ldw	r16,0(sp)
 800454c:	dec00304 	addi	sp,sp,12
 8004550:	f800283a 	ret
 8004554:	3080040c 	andi	r2,r6,16
 8004558:	10001726 	beq	r2,zero,80045b8 <__swsetup_r+0xe0>
 800455c:	3080010c 	andi	r2,r6,4
 8004560:	10001b1e 	bne	r2,zero,80045d0 <__swsetup_r+0xf8>
 8004564:	80c00417 	ldw	r3,16(r16)
 8004568:	30800214 	ori	r2,r6,8
 800456c:	8080030d 	sth	r2,12(r16)
 8004570:	183feb1e 	bne	r3,zero,8004520 <__alt_data_end+0xfc004520>
 8004574:	1140a00c 	andi	r5,r2,640
 8004578:	01008004 	movi	r4,512
 800457c:	293fe826 	beq	r5,r4,8004520 <__alt_data_end+0xfc004520>
 8004580:	8809883a 	mov	r4,r17
 8004584:	800b883a 	mov	r5,r16
 8004588:	800706c0 	call	800706c <__smakebuf_r>
 800458c:	8080030b 	ldhu	r2,12(r16)
 8004590:	80c00417 	ldw	r3,16(r16)
 8004594:	003fe206 	br	8004520 <__alt_data_end+0xfc004520>
 8004598:	80800517 	ldw	r2,20(r16)
 800459c:	80000215 	stw	zero,8(r16)
 80045a0:	0085c83a 	sub	r2,zero,r2
 80045a4:	80800615 	stw	r2,24(r16)
 80045a8:	183fe41e 	bne	r3,zero,800453c <__alt_data_end+0xfc00453c>
 80045ac:	8080030b 	ldhu	r2,12(r16)
 80045b0:	1080200c 	andi	r2,r2,128
 80045b4:	103fe226 	beq	r2,zero,8004540 <__alt_data_end+0xfc004540>
 80045b8:	00bfffc4 	movi	r2,-1
 80045bc:	003fe006 	br	8004540 <__alt_data_end+0xfc004540>
 80045c0:	80065140 	call	8006514 <__sinit>
 80045c4:	003fd006 	br	8004508 <__alt_data_end+0xfc004508>
 80045c8:	0005883a 	mov	r2,zero
 80045cc:	003fd906 	br	8004534 <__alt_data_end+0xfc004534>
 80045d0:	81400c17 	ldw	r5,48(r16)
 80045d4:	28000626 	beq	r5,zero,80045f0 <__swsetup_r+0x118>
 80045d8:	80801004 	addi	r2,r16,64
 80045dc:	28800326 	beq	r5,r2,80045ec <__swsetup_r+0x114>
 80045e0:	8809883a 	mov	r4,r17
 80045e4:	80066880 	call	8006688 <_free_r>
 80045e8:	8180030b 	ldhu	r6,12(r16)
 80045ec:	80000c15 	stw	zero,48(r16)
 80045f0:	80c00417 	ldw	r3,16(r16)
 80045f4:	00bff6c4 	movi	r2,-37
 80045f8:	118c703a 	and	r6,r2,r6
 80045fc:	80000115 	stw	zero,4(r16)
 8004600:	80c00015 	stw	r3,0(r16)
 8004604:	003fd806 	br	8004568 <__alt_data_end+0xfc004568>

08004608 <quorem>:
 8004608:	defff204 	addi	sp,sp,-56
 800460c:	ddc00b15 	stw	r23,44(sp)
 8004610:	20800417 	ldw	r2,16(r4)
 8004614:	2dc00417 	ldw	r23,16(r5)
 8004618:	dfc00d15 	stw	ra,52(sp)
 800461c:	df000c15 	stw	fp,48(sp)
 8004620:	dd800a15 	stw	r22,40(sp)
 8004624:	dd400915 	stw	r21,36(sp)
 8004628:	dd000815 	stw	r20,32(sp)
 800462c:	dcc00715 	stw	r19,28(sp)
 8004630:	dc800615 	stw	r18,24(sp)
 8004634:	dc400515 	stw	r17,20(sp)
 8004638:	dc000415 	stw	r16,16(sp)
 800463c:	15c07a16 	blt	r2,r23,8004828 <quorem+0x220>
 8004640:	bdffffc4 	addi	r23,r23,-1
 8004644:	bde9883a 	add	r20,r23,r23
 8004648:	28c00504 	addi	r3,r5,20
 800464c:	a529883a 	add	r20,r20,r20
 8004650:	1d39883a 	add	fp,r3,r20
 8004654:	24c00504 	addi	r19,r4,20
 8004658:	d9400215 	stw	r5,8(sp)
 800465c:	9d29883a 	add	r20,r19,r20
 8004660:	e1400017 	ldw	r5,0(fp)
 8004664:	d9000015 	stw	r4,0(sp)
 8004668:	a1000017 	ldw	r4,0(r20)
 800466c:	29400044 	addi	r5,r5,1
 8004670:	d8c00115 	stw	r3,4(sp)
 8004674:	dd000315 	stw	r20,12(sp)
 8004678:	80021940 	call	8002194 <__udivsi3>
 800467c:	1025883a 	mov	r18,r2
 8004680:	10003026 	beq	r2,zero,8004744 <quorem+0x13c>
 8004684:	dc400117 	ldw	r17,4(sp)
 8004688:	9829883a 	mov	r20,r19
 800468c:	002d883a 	mov	r22,zero
 8004690:	0021883a 	mov	r16,zero
 8004694:	8d400017 	ldw	r21,0(r17)
 8004698:	900b883a 	mov	r5,r18
 800469c:	8c400104 	addi	r17,r17,4
 80046a0:	a93fffcc 	andi	r4,r21,65535
 80046a4:	80021a40 	call	80021a4 <__mulsi3>
 80046a8:	a808d43a 	srli	r4,r21,16
 80046ac:	900b883a 	mov	r5,r18
 80046b0:	b0ad883a 	add	r22,r22,r2
 80046b4:	80021a40 	call	80021a4 <__mulsi3>
 80046b8:	a1000017 	ldw	r4,0(r20)
 80046bc:	b00cd43a 	srli	r6,r22,16
 80046c0:	b0ffffcc 	andi	r3,r22,65535
 80046c4:	217fffcc 	andi	r5,r4,65535
 80046c8:	2c21883a 	add	r16,r5,r16
 80046cc:	80c7c83a 	sub	r3,r16,r3
 80046d0:	2008d43a 	srli	r4,r4,16
 80046d4:	3085883a 	add	r2,r6,r2
 80046d8:	1821d43a 	srai	r16,r3,16
 80046dc:	117fffcc 	andi	r5,r2,65535
 80046e0:	2149c83a 	sub	r4,r4,r5
 80046e4:	2421883a 	add	r16,r4,r16
 80046e8:	8008943a 	slli	r4,r16,16
 80046ec:	18ffffcc 	andi	r3,r3,65535
 80046f0:	102cd43a 	srli	r22,r2,16
 80046f4:	20c8b03a 	or	r4,r4,r3
 80046f8:	a1000015 	stw	r4,0(r20)
 80046fc:	8021d43a 	srai	r16,r16,16
 8004700:	a5000104 	addi	r20,r20,4
 8004704:	e47fe32e 	bgeu	fp,r17,8004694 <__alt_data_end+0xfc004694>
 8004708:	d8c00317 	ldw	r3,12(sp)
 800470c:	18800017 	ldw	r2,0(r3)
 8004710:	10000c1e 	bne	r2,zero,8004744 <quorem+0x13c>
 8004714:	18bfff04 	addi	r2,r3,-4
 8004718:	9880082e 	bgeu	r19,r2,800473c <quorem+0x134>
 800471c:	18ffff17 	ldw	r3,-4(r3)
 8004720:	18000326 	beq	r3,zero,8004730 <quorem+0x128>
 8004724:	00000506 	br	800473c <quorem+0x134>
 8004728:	10c00017 	ldw	r3,0(r2)
 800472c:	1800031e 	bne	r3,zero,800473c <quorem+0x134>
 8004730:	10bfff04 	addi	r2,r2,-4
 8004734:	bdffffc4 	addi	r23,r23,-1
 8004738:	98bffb36 	bltu	r19,r2,8004728 <__alt_data_end+0xfc004728>
 800473c:	d8c00017 	ldw	r3,0(sp)
 8004740:	1dc00415 	stw	r23,16(r3)
 8004744:	d9000017 	ldw	r4,0(sp)
 8004748:	d9400217 	ldw	r5,8(sp)
 800474c:	80087e80 	call	80087e8 <__mcmp>
 8004750:	10002816 	blt	r2,zero,80047f4 <quorem+0x1ec>
 8004754:	dc400117 	ldw	r17,4(sp)
 8004758:	94800044 	addi	r18,r18,1
 800475c:	980d883a 	mov	r6,r19
 8004760:	0007883a 	mov	r3,zero
 8004764:	31000017 	ldw	r4,0(r6)
 8004768:	89400017 	ldw	r5,0(r17)
 800476c:	31800104 	addi	r6,r6,4
 8004770:	20bfffcc 	andi	r2,r4,65535
 8004774:	10c7883a 	add	r3,r2,r3
 8004778:	28bfffcc 	andi	r2,r5,65535
 800477c:	1885c83a 	sub	r2,r3,r2
 8004780:	280ad43a 	srli	r5,r5,16
 8004784:	2008d43a 	srli	r4,r4,16
 8004788:	1007d43a 	srai	r3,r2,16
 800478c:	10bfffcc 	andi	r2,r2,65535
 8004790:	2149c83a 	sub	r4,r4,r5
 8004794:	20c9883a 	add	r4,r4,r3
 8004798:	200a943a 	slli	r5,r4,16
 800479c:	8c400104 	addi	r17,r17,4
 80047a0:	2007d43a 	srai	r3,r4,16
 80047a4:	2884b03a 	or	r2,r5,r2
 80047a8:	30bfff15 	stw	r2,-4(r6)
 80047ac:	e47fed2e 	bgeu	fp,r17,8004764 <__alt_data_end+0xfc004764>
 80047b0:	bdc5883a 	add	r2,r23,r23
 80047b4:	1085883a 	add	r2,r2,r2
 80047b8:	9887883a 	add	r3,r19,r2
 80047bc:	18800017 	ldw	r2,0(r3)
 80047c0:	10000c1e 	bne	r2,zero,80047f4 <quorem+0x1ec>
 80047c4:	18bfff04 	addi	r2,r3,-4
 80047c8:	9880082e 	bgeu	r19,r2,80047ec <quorem+0x1e4>
 80047cc:	18ffff17 	ldw	r3,-4(r3)
 80047d0:	18000326 	beq	r3,zero,80047e0 <quorem+0x1d8>
 80047d4:	00000506 	br	80047ec <quorem+0x1e4>
 80047d8:	10c00017 	ldw	r3,0(r2)
 80047dc:	1800031e 	bne	r3,zero,80047ec <quorem+0x1e4>
 80047e0:	10bfff04 	addi	r2,r2,-4
 80047e4:	bdffffc4 	addi	r23,r23,-1
 80047e8:	98bffb36 	bltu	r19,r2,80047d8 <__alt_data_end+0xfc0047d8>
 80047ec:	d8c00017 	ldw	r3,0(sp)
 80047f0:	1dc00415 	stw	r23,16(r3)
 80047f4:	9005883a 	mov	r2,r18
 80047f8:	dfc00d17 	ldw	ra,52(sp)
 80047fc:	df000c17 	ldw	fp,48(sp)
 8004800:	ddc00b17 	ldw	r23,44(sp)
 8004804:	dd800a17 	ldw	r22,40(sp)
 8004808:	dd400917 	ldw	r21,36(sp)
 800480c:	dd000817 	ldw	r20,32(sp)
 8004810:	dcc00717 	ldw	r19,28(sp)
 8004814:	dc800617 	ldw	r18,24(sp)
 8004818:	dc400517 	ldw	r17,20(sp)
 800481c:	dc000417 	ldw	r16,16(sp)
 8004820:	dec00e04 	addi	sp,sp,56
 8004824:	f800283a 	ret
 8004828:	0005883a 	mov	r2,zero
 800482c:	003ff206 	br	80047f8 <__alt_data_end+0xfc0047f8>

08004830 <_dtoa_r>:
 8004830:	20801017 	ldw	r2,64(r4)
 8004834:	deffde04 	addi	sp,sp,-136
 8004838:	dd401d15 	stw	r21,116(sp)
 800483c:	dcc01b15 	stw	r19,108(sp)
 8004840:	dc801a15 	stw	r18,104(sp)
 8004844:	dc401915 	stw	r17,100(sp)
 8004848:	dc001815 	stw	r16,96(sp)
 800484c:	dfc02115 	stw	ra,132(sp)
 8004850:	df002015 	stw	fp,128(sp)
 8004854:	ddc01f15 	stw	r23,124(sp)
 8004858:	dd801e15 	stw	r22,120(sp)
 800485c:	dd001c15 	stw	r20,112(sp)
 8004860:	d9c00315 	stw	r7,12(sp)
 8004864:	2021883a 	mov	r16,r4
 8004868:	302b883a 	mov	r21,r6
 800486c:	2825883a 	mov	r18,r5
 8004870:	dc402417 	ldw	r17,144(sp)
 8004874:	3027883a 	mov	r19,r6
 8004878:	10000826 	beq	r2,zero,800489c <_dtoa_r+0x6c>
 800487c:	21801117 	ldw	r6,68(r4)
 8004880:	00c00044 	movi	r3,1
 8004884:	100b883a 	mov	r5,r2
 8004888:	1986983a 	sll	r3,r3,r6
 800488c:	11800115 	stw	r6,4(r2)
 8004890:	10c00215 	stw	r3,8(r2)
 8004894:	8007f140 	call	8007f14 <_Bfree>
 8004898:	80001015 	stw	zero,64(r16)
 800489c:	a8002d16 	blt	r21,zero,8004954 <_dtoa_r+0x124>
 80048a0:	88000015 	stw	zero,0(r17)
 80048a4:	a8dffc2c 	andhi	r3,r21,32752
 80048a8:	009ffc34 	movhi	r2,32752
 80048ac:	18801b26 	beq	r3,r2,800491c <_dtoa_r+0xec>
 80048b0:	9009883a 	mov	r4,r18
 80048b4:	980b883a 	mov	r5,r19
 80048b8:	000d883a 	mov	r6,zero
 80048bc:	000f883a 	mov	r7,zero
 80048c0:	800cc040 	call	800cc04 <__eqdf2>
 80048c4:	10002a1e 	bne	r2,zero,8004970 <_dtoa_r+0x140>
 80048c8:	d8c02317 	ldw	r3,140(sp)
 80048cc:	d9002517 	ldw	r4,148(sp)
 80048d0:	00800044 	movi	r2,1
 80048d4:	18800015 	stw	r2,0(r3)
 80048d8:	2001a226 	beq	r4,zero,8004f64 <_dtoa_r+0x734>
 80048dc:	00820074 	movhi	r2,2049
 80048e0:	1081f744 	addi	r2,r2,2013
 80048e4:	20800015 	stw	r2,0(r4)
 80048e8:	10bfffc4 	addi	r2,r2,-1
 80048ec:	dfc02117 	ldw	ra,132(sp)
 80048f0:	df002017 	ldw	fp,128(sp)
 80048f4:	ddc01f17 	ldw	r23,124(sp)
 80048f8:	dd801e17 	ldw	r22,120(sp)
 80048fc:	dd401d17 	ldw	r21,116(sp)
 8004900:	dd001c17 	ldw	r20,112(sp)
 8004904:	dcc01b17 	ldw	r19,108(sp)
 8004908:	dc801a17 	ldw	r18,104(sp)
 800490c:	dc401917 	ldw	r17,100(sp)
 8004910:	dc001817 	ldw	r16,96(sp)
 8004914:	dec02204 	addi	sp,sp,136
 8004918:	f800283a 	ret
 800491c:	d8c02317 	ldw	r3,140(sp)
 8004920:	0089c3c4 	movi	r2,9999
 8004924:	18800015 	stw	r2,0(r3)
 8004928:	90017c26 	beq	r18,zero,8004f1c <_dtoa_r+0x6ec>
 800492c:	00820074 	movhi	r2,2049
 8004930:	10820304 	addi	r2,r2,2060
 8004934:	d9002517 	ldw	r4,148(sp)
 8004938:	203fec26 	beq	r4,zero,80048ec <__alt_data_end+0xfc0048ec>
 800493c:	10c000c7 	ldb	r3,3(r2)
 8004940:	18017d1e 	bne	r3,zero,8004f38 <_dtoa_r+0x708>
 8004944:	10c000c4 	addi	r3,r2,3
 8004948:	d9802517 	ldw	r6,148(sp)
 800494c:	30c00015 	stw	r3,0(r6)
 8004950:	003fe606 	br	80048ec <__alt_data_end+0xfc0048ec>
 8004954:	04e00034 	movhi	r19,32768
 8004958:	9cffffc4 	addi	r19,r19,-1
 800495c:	00800044 	movi	r2,1
 8004960:	ace6703a 	and	r19,r21,r19
 8004964:	88800015 	stw	r2,0(r17)
 8004968:	982b883a 	mov	r21,r19
 800496c:	003fcd06 	br	80048a4 <__alt_data_end+0xfc0048a4>
 8004970:	d8800204 	addi	r2,sp,8
 8004974:	a822d53a 	srli	r17,r21,20
 8004978:	d8800015 	stw	r2,0(sp)
 800497c:	8009883a 	mov	r4,r16
 8004980:	900b883a 	mov	r5,r18
 8004984:	980d883a 	mov	r6,r19
 8004988:	d9c00104 	addi	r7,sp,4
 800498c:	8008b5c0 	call	8008b5c <__d2b>
 8004990:	1039883a 	mov	fp,r2
 8004994:	88016a1e 	bne	r17,zero,8004f40 <_dtoa_r+0x710>
 8004998:	dd000217 	ldw	r20,8(sp)
 800499c:	dc400117 	ldw	r17,4(sp)
 80049a0:	00befbc4 	movi	r2,-1041
 80049a4:	a463883a 	add	r17,r20,r17
 80049a8:	8882ea16 	blt	r17,r2,8005554 <_dtoa_r+0xd24>
 80049ac:	00bf0384 	movi	r2,-1010
 80049b0:	1445c83a 	sub	r2,r2,r17
 80049b4:	89010484 	addi	r4,r17,1042
 80049b8:	a8aa983a 	sll	r21,r21,r2
 80049bc:	9108d83a 	srl	r4,r18,r4
 80049c0:	a908b03a 	or	r4,r21,r4
 80049c4:	8001f700 	call	8001f70 <__floatunsidf>
 80049c8:	017f8434 	movhi	r5,65040
 80049cc:	01800044 	movi	r6,1
 80049d0:	1009883a 	mov	r4,r2
 80049d4:	194b883a 	add	r5,r3,r5
 80049d8:	8c7fffc4 	addi	r17,r17,-1
 80049dc:	d9800f15 	stw	r6,60(sp)
 80049e0:	000d883a 	mov	r6,zero
 80049e4:	01cffe34 	movhi	r7,16376
 80049e8:	800ce480 	call	800ce48 <__subdf3>
 80049ec:	0198dbf4 	movhi	r6,25455
 80049f0:	01cff4f4 	movhi	r7,16339
 80049f4:	1009883a 	mov	r4,r2
 80049f8:	180b883a 	mov	r5,r3
 80049fc:	3190d844 	addi	r6,r6,17249
 8004a00:	39e1e9c4 	addi	r7,r7,-30809
 8004a04:	800167c0 	call	800167c <__muldf3>
 8004a08:	01a2d874 	movhi	r6,35681
 8004a0c:	01cff1f4 	movhi	r7,16327
 8004a10:	180b883a 	mov	r5,r3
 8004a14:	31b22cc4 	addi	r6,r6,-14157
 8004a18:	39e28a04 	addi	r7,r7,-30168
 8004a1c:	1009883a 	mov	r4,r2
 8004a20:	800c3680 	call	800c368 <__adddf3>
 8004a24:	8809883a 	mov	r4,r17
 8004a28:	102d883a 	mov	r22,r2
 8004a2c:	182b883a 	mov	r21,r3
 8004a30:	800d7180 	call	800d718 <__floatsidf>
 8004a34:	019427f4 	movhi	r6,20639
 8004a38:	01cff4f4 	movhi	r7,16339
 8004a3c:	1009883a 	mov	r4,r2
 8004a40:	180b883a 	mov	r5,r3
 8004a44:	319e7ec4 	addi	r6,r6,31227
 8004a48:	39d104c4 	addi	r7,r7,17427
 8004a4c:	800167c0 	call	800167c <__muldf3>
 8004a50:	b009883a 	mov	r4,r22
 8004a54:	a80b883a 	mov	r5,r21
 8004a58:	100d883a 	mov	r6,r2
 8004a5c:	180f883a 	mov	r7,r3
 8004a60:	800c3680 	call	800c368 <__adddf3>
 8004a64:	1009883a 	mov	r4,r2
 8004a68:	180b883a 	mov	r5,r3
 8004a6c:	102d883a 	mov	r22,r2
 8004a70:	182b883a 	mov	r21,r3
 8004a74:	8001ee80 	call	8001ee8 <__fixdfsi>
 8004a78:	b009883a 	mov	r4,r22
 8004a7c:	a80b883a 	mov	r5,r21
 8004a80:	000d883a 	mov	r6,zero
 8004a84:	000f883a 	mov	r7,zero
 8004a88:	d8800515 	stw	r2,20(sp)
 8004a8c:	800cd680 	call	800cd68 <__ledf2>
 8004a90:	10023116 	blt	r2,zero,8005358 <_dtoa_r+0xb28>
 8004a94:	d8c00517 	ldw	r3,20(sp)
 8004a98:	00800584 	movi	r2,22
 8004a9c:	10c21f36 	bltu	r2,r3,800531c <_dtoa_r+0xaec>
 8004aa0:	180490fa 	slli	r2,r3,3
 8004aa4:	00c20074 	movhi	r3,2049
 8004aa8:	18c21f04 	addi	r3,r3,2172
 8004aac:	1885883a 	add	r2,r3,r2
 8004ab0:	11000017 	ldw	r4,0(r2)
 8004ab4:	11400117 	ldw	r5,4(r2)
 8004ab8:	900d883a 	mov	r6,r18
 8004abc:	980f883a 	mov	r7,r19
 8004ac0:	800cc880 	call	800cc88 <__gedf2>
 8004ac4:	0082a70e 	bge	zero,r2,8005564 <_dtoa_r+0xd34>
 8004ac8:	d9000517 	ldw	r4,20(sp)
 8004acc:	d8000c15 	stw	zero,48(sp)
 8004ad0:	213fffc4 	addi	r4,r4,-1
 8004ad4:	d9000515 	stw	r4,20(sp)
 8004ad8:	a463c83a 	sub	r17,r20,r17
 8004adc:	8dbfffc4 	addi	r22,r17,-1
 8004ae0:	b0021916 	blt	r22,zero,8005348 <_dtoa_r+0xb18>
 8004ae4:	d8000815 	stw	zero,32(sp)
 8004ae8:	d8800517 	ldw	r2,20(sp)
 8004aec:	10020e16 	blt	r2,zero,8005328 <_dtoa_r+0xaf8>
 8004af0:	b0ad883a 	add	r22,r22,r2
 8004af4:	d8800a15 	stw	r2,40(sp)
 8004af8:	d8000915 	stw	zero,36(sp)
 8004afc:	d8c00317 	ldw	r3,12(sp)
 8004b00:	00800244 	movi	r2,9
 8004b04:	10c11a36 	bltu	r2,r3,8004f70 <_dtoa_r+0x740>
 8004b08:	00800144 	movi	r2,5
 8004b0c:	10c4fc0e 	bge	r2,r3,8005f00 <_dtoa_r+0x16d0>
 8004b10:	18ffff04 	addi	r3,r3,-4
 8004b14:	d8c00315 	stw	r3,12(sp)
 8004b18:	0029883a 	mov	r20,zero
 8004b1c:	d9800317 	ldw	r6,12(sp)
 8004b20:	008000c4 	movi	r2,3
 8004b24:	3083bd26 	beq	r6,r2,8005a1c <_dtoa_r+0x11ec>
 8004b28:	1183670e 	bge	r2,r6,80058c8 <_dtoa_r+0x1098>
 8004b2c:	d8c00317 	ldw	r3,12(sp)
 8004b30:	00800104 	movi	r2,4
 8004b34:	1882e726 	beq	r3,r2,80056d4 <_dtoa_r+0xea4>
 8004b38:	00800144 	movi	r2,5
 8004b3c:	1884f21e 	bne	r3,r2,8005f08 <_dtoa_r+0x16d8>
 8004b40:	00800044 	movi	r2,1
 8004b44:	d8800b15 	stw	r2,44(sp)
 8004b48:	d8c02217 	ldw	r3,136(sp)
 8004b4c:	d9000517 	ldw	r4,20(sp)
 8004b50:	1907883a 	add	r3,r3,r4
 8004b54:	19800044 	addi	r6,r3,1
 8004b58:	d8c00d15 	stw	r3,52(sp)
 8004b5c:	d9800615 	stw	r6,24(sp)
 8004b60:	0183c30e 	bge	zero,r6,8005a70 <_dtoa_r+0x1240>
 8004b64:	d9800617 	ldw	r6,24(sp)
 8004b68:	3023883a 	mov	r17,r6
 8004b6c:	80001115 	stw	zero,68(r16)
 8004b70:	008005c4 	movi	r2,23
 8004b74:	1184f62e 	bgeu	r2,r6,8005f50 <_dtoa_r+0x1720>
 8004b78:	00c00044 	movi	r3,1
 8004b7c:	00800104 	movi	r2,4
 8004b80:	1085883a 	add	r2,r2,r2
 8004b84:	11000504 	addi	r4,r2,20
 8004b88:	180b883a 	mov	r5,r3
 8004b8c:	18c00044 	addi	r3,r3,1
 8004b90:	313ffb2e 	bgeu	r6,r4,8004b80 <__alt_data_end+0xfc004b80>
 8004b94:	81401115 	stw	r5,68(r16)
 8004b98:	8009883a 	mov	r4,r16
 8004b9c:	8007e6c0 	call	8007e6c <_Balloc>
 8004ba0:	d8800715 	stw	r2,28(sp)
 8004ba4:	80801015 	stw	r2,64(r16)
 8004ba8:	00800384 	movi	r2,14
 8004bac:	1440fd36 	bltu	r2,r17,8004fa4 <_dtoa_r+0x774>
 8004bb0:	a000fc26 	beq	r20,zero,8004fa4 <_dtoa_r+0x774>
 8004bb4:	d8800517 	ldw	r2,20(sp)
 8004bb8:	0083b90e 	bge	zero,r2,8005aa0 <_dtoa_r+0x1270>
 8004bbc:	d8c00517 	ldw	r3,20(sp)
 8004bc0:	108003cc 	andi	r2,r2,15
 8004bc4:	100490fa 	slli	r2,r2,3
 8004bc8:	182fd13a 	srai	r23,r3,4
 8004bcc:	00c20074 	movhi	r3,2049
 8004bd0:	18c21f04 	addi	r3,r3,2172
 8004bd4:	1885883a 	add	r2,r3,r2
 8004bd8:	b8c0040c 	andi	r3,r23,16
 8004bdc:	12c00017 	ldw	r11,0(r2)
 8004be0:	12800117 	ldw	r10,4(r2)
 8004be4:	18039726 	beq	r3,zero,8005a44 <_dtoa_r+0x1214>
 8004be8:	00820074 	movhi	r2,2049
 8004bec:	10821504 	addi	r2,r2,2132
 8004bf0:	11800817 	ldw	r6,32(r2)
 8004bf4:	11c00917 	ldw	r7,36(r2)
 8004bf8:	9009883a 	mov	r4,r18
 8004bfc:	980b883a 	mov	r5,r19
 8004c00:	da801615 	stw	r10,88(sp)
 8004c04:	dac01515 	stw	r11,84(sp)
 8004c08:	8000cfc0 	call	8000cfc <__divdf3>
 8004c0c:	da801617 	ldw	r10,88(sp)
 8004c10:	dac01517 	ldw	r11,84(sp)
 8004c14:	bdc003cc 	andi	r23,r23,15
 8004c18:	044000c4 	movi	r17,3
 8004c1c:	d8800e15 	stw	r2,56(sp)
 8004c20:	182b883a 	mov	r21,r3
 8004c24:	b8001126 	beq	r23,zero,8004c6c <_dtoa_r+0x43c>
 8004c28:	05020074 	movhi	r20,2049
 8004c2c:	a5021504 	addi	r20,r20,2132
 8004c30:	5805883a 	mov	r2,r11
 8004c34:	5007883a 	mov	r3,r10
 8004c38:	b980004c 	andi	r6,r23,1
 8004c3c:	1009883a 	mov	r4,r2
 8004c40:	b82fd07a 	srai	r23,r23,1
 8004c44:	180b883a 	mov	r5,r3
 8004c48:	30000426 	beq	r6,zero,8004c5c <_dtoa_r+0x42c>
 8004c4c:	a1800017 	ldw	r6,0(r20)
 8004c50:	a1c00117 	ldw	r7,4(r20)
 8004c54:	8c400044 	addi	r17,r17,1
 8004c58:	800167c0 	call	800167c <__muldf3>
 8004c5c:	a5000204 	addi	r20,r20,8
 8004c60:	b83ff51e 	bne	r23,zero,8004c38 <__alt_data_end+0xfc004c38>
 8004c64:	1017883a 	mov	r11,r2
 8004c68:	1815883a 	mov	r10,r3
 8004c6c:	d9000e17 	ldw	r4,56(sp)
 8004c70:	a80b883a 	mov	r5,r21
 8004c74:	580d883a 	mov	r6,r11
 8004c78:	500f883a 	mov	r7,r10
 8004c7c:	8000cfc0 	call	8000cfc <__divdf3>
 8004c80:	1029883a 	mov	r20,r2
 8004c84:	182b883a 	mov	r21,r3
 8004c88:	d9800c17 	ldw	r6,48(sp)
 8004c8c:	30000626 	beq	r6,zero,8004ca8 <_dtoa_r+0x478>
 8004c90:	a009883a 	mov	r4,r20
 8004c94:	a80b883a 	mov	r5,r21
 8004c98:	000d883a 	mov	r6,zero
 8004c9c:	01cffc34 	movhi	r7,16368
 8004ca0:	800cd680 	call	800cd68 <__ledf2>
 8004ca4:	10043216 	blt	r2,zero,8005d70 <_dtoa_r+0x1540>
 8004ca8:	8809883a 	mov	r4,r17
 8004cac:	800d7180 	call	800d718 <__floatsidf>
 8004cb0:	1009883a 	mov	r4,r2
 8004cb4:	180b883a 	mov	r5,r3
 8004cb8:	a00d883a 	mov	r6,r20
 8004cbc:	a80f883a 	mov	r7,r21
 8004cc0:	800167c0 	call	800167c <__muldf3>
 8004cc4:	000d883a 	mov	r6,zero
 8004cc8:	1009883a 	mov	r4,r2
 8004ccc:	180b883a 	mov	r5,r3
 8004cd0:	01d00734 	movhi	r7,16412
 8004cd4:	800c3680 	call	800c368 <__adddf3>
 8004cd8:	1023883a 	mov	r17,r2
 8004cdc:	d9800617 	ldw	r6,24(sp)
 8004ce0:	00bf3034 	movhi	r2,64704
 8004ce4:	1885883a 	add	r2,r3,r2
 8004ce8:	d8800e15 	stw	r2,56(sp)
 8004cec:	30032e26 	beq	r6,zero,80059a8 <_dtoa_r+0x1178>
 8004cf0:	d8c00517 	ldw	r3,20(sp)
 8004cf4:	da800617 	ldw	r10,24(sp)
 8004cf8:	d8c01215 	stw	r3,72(sp)
 8004cfc:	d9000b17 	ldw	r4,44(sp)
 8004d00:	2003b026 	beq	r4,zero,8005bc4 <_dtoa_r+0x1394>
 8004d04:	50bfffc4 	addi	r2,r10,-1
 8004d08:	100490fa 	slli	r2,r2,3
 8004d0c:	00c20074 	movhi	r3,2049
 8004d10:	18c21f04 	addi	r3,r3,2172
 8004d14:	1885883a 	add	r2,r3,r2
 8004d18:	11800017 	ldw	r6,0(r2)
 8004d1c:	11c00117 	ldw	r7,4(r2)
 8004d20:	d8800717 	ldw	r2,28(sp)
 8004d24:	0009883a 	mov	r4,zero
 8004d28:	014ff834 	movhi	r5,16352
 8004d2c:	da801615 	stw	r10,88(sp)
 8004d30:	15c00044 	addi	r23,r2,1
 8004d34:	8000cfc0 	call	8000cfc <__divdf3>
 8004d38:	d9c00e17 	ldw	r7,56(sp)
 8004d3c:	880d883a 	mov	r6,r17
 8004d40:	1009883a 	mov	r4,r2
 8004d44:	180b883a 	mov	r5,r3
 8004d48:	800ce480 	call	800ce48 <__subdf3>
 8004d4c:	a80b883a 	mov	r5,r21
 8004d50:	a009883a 	mov	r4,r20
 8004d54:	d8c01015 	stw	r3,64(sp)
 8004d58:	d8800e15 	stw	r2,56(sp)
 8004d5c:	8001ee80 	call	8001ee8 <__fixdfsi>
 8004d60:	1009883a 	mov	r4,r2
 8004d64:	d8801715 	stw	r2,92(sp)
 8004d68:	800d7180 	call	800d718 <__floatsidf>
 8004d6c:	a009883a 	mov	r4,r20
 8004d70:	a80b883a 	mov	r5,r21
 8004d74:	100d883a 	mov	r6,r2
 8004d78:	180f883a 	mov	r7,r3
 8004d7c:	800ce480 	call	800ce48 <__subdf3>
 8004d80:	da001717 	ldw	r8,92(sp)
 8004d84:	1829883a 	mov	r20,r3
 8004d88:	d8c00717 	ldw	r3,28(sp)
 8004d8c:	d9000e17 	ldw	r4,56(sp)
 8004d90:	d9401017 	ldw	r5,64(sp)
 8004d94:	42000c04 	addi	r8,r8,48
 8004d98:	1023883a 	mov	r17,r2
 8004d9c:	1a000005 	stb	r8,0(r3)
 8004da0:	880d883a 	mov	r6,r17
 8004da4:	a00f883a 	mov	r7,r20
 8004da8:	402b883a 	mov	r21,r8
 8004dac:	800cc880 	call	800cc88 <__gedf2>
 8004db0:	00844516 	blt	zero,r2,8005ec8 <_dtoa_r+0x1698>
 8004db4:	0009883a 	mov	r4,zero
 8004db8:	014ffc34 	movhi	r5,16368
 8004dbc:	880d883a 	mov	r6,r17
 8004dc0:	a00f883a 	mov	r7,r20
 8004dc4:	800ce480 	call	800ce48 <__subdf3>
 8004dc8:	d9000e17 	ldw	r4,56(sp)
 8004dcc:	d9401017 	ldw	r5,64(sp)
 8004dd0:	100d883a 	mov	r6,r2
 8004dd4:	180f883a 	mov	r7,r3
 8004dd8:	800cc880 	call	800cc88 <__gedf2>
 8004ddc:	da801617 	ldw	r10,88(sp)
 8004de0:	00843616 	blt	zero,r2,8005ebc <_dtoa_r+0x168c>
 8004de4:	00800044 	movi	r2,1
 8004de8:	12806e0e 	bge	r2,r10,8004fa4 <_dtoa_r+0x774>
 8004dec:	d9000717 	ldw	r4,28(sp)
 8004df0:	dd801315 	stw	r22,76(sp)
 8004df4:	dc001115 	stw	r16,68(sp)
 8004df8:	2295883a 	add	r10,r4,r10
 8004dfc:	dcc01415 	stw	r19,80(sp)
 8004e00:	502d883a 	mov	r22,r10
 8004e04:	dcc01017 	ldw	r19,64(sp)
 8004e08:	b821883a 	mov	r16,r23
 8004e0c:	dc801015 	stw	r18,64(sp)
 8004e10:	dc800e17 	ldw	r18,56(sp)
 8004e14:	00000906 	br	8004e3c <_dtoa_r+0x60c>
 8004e18:	800ce480 	call	800ce48 <__subdf3>
 8004e1c:	1009883a 	mov	r4,r2
 8004e20:	180b883a 	mov	r5,r3
 8004e24:	900d883a 	mov	r6,r18
 8004e28:	980f883a 	mov	r7,r19
 8004e2c:	800cd680 	call	800cd68 <__ledf2>
 8004e30:	10040e16 	blt	r2,zero,8005e6c <_dtoa_r+0x163c>
 8004e34:	b821883a 	mov	r16,r23
 8004e38:	bd841026 	beq	r23,r22,8005e7c <_dtoa_r+0x164c>
 8004e3c:	9009883a 	mov	r4,r18
 8004e40:	980b883a 	mov	r5,r19
 8004e44:	000d883a 	mov	r6,zero
 8004e48:	01d00934 	movhi	r7,16420
 8004e4c:	800167c0 	call	800167c <__muldf3>
 8004e50:	000d883a 	mov	r6,zero
 8004e54:	01d00934 	movhi	r7,16420
 8004e58:	8809883a 	mov	r4,r17
 8004e5c:	a00b883a 	mov	r5,r20
 8004e60:	1025883a 	mov	r18,r2
 8004e64:	1827883a 	mov	r19,r3
 8004e68:	800167c0 	call	800167c <__muldf3>
 8004e6c:	180b883a 	mov	r5,r3
 8004e70:	1009883a 	mov	r4,r2
 8004e74:	1823883a 	mov	r17,r3
 8004e78:	1029883a 	mov	r20,r2
 8004e7c:	8001ee80 	call	8001ee8 <__fixdfsi>
 8004e80:	1009883a 	mov	r4,r2
 8004e84:	102b883a 	mov	r21,r2
 8004e88:	800d7180 	call	800d718 <__floatsidf>
 8004e8c:	a009883a 	mov	r4,r20
 8004e90:	880b883a 	mov	r5,r17
 8004e94:	100d883a 	mov	r6,r2
 8004e98:	180f883a 	mov	r7,r3
 8004e9c:	800ce480 	call	800ce48 <__subdf3>
 8004ea0:	ad400c04 	addi	r21,r21,48
 8004ea4:	1009883a 	mov	r4,r2
 8004ea8:	180b883a 	mov	r5,r3
 8004eac:	900d883a 	mov	r6,r18
 8004eb0:	980f883a 	mov	r7,r19
 8004eb4:	85400005 	stb	r21,0(r16)
 8004eb8:	1023883a 	mov	r17,r2
 8004ebc:	1829883a 	mov	r20,r3
 8004ec0:	800cd680 	call	800cd68 <__ledf2>
 8004ec4:	bdc00044 	addi	r23,r23,1
 8004ec8:	0009883a 	mov	r4,zero
 8004ecc:	014ffc34 	movhi	r5,16368
 8004ed0:	880d883a 	mov	r6,r17
 8004ed4:	a00f883a 	mov	r7,r20
 8004ed8:	103fcf0e 	bge	r2,zero,8004e18 <__alt_data_end+0xfc004e18>
 8004edc:	d9801217 	ldw	r6,72(sp)
 8004ee0:	dc001117 	ldw	r16,68(sp)
 8004ee4:	d9800515 	stw	r6,20(sp)
 8004ee8:	8009883a 	mov	r4,r16
 8004eec:	e00b883a 	mov	r5,fp
 8004ef0:	8007f140 	call	8007f14 <_Bfree>
 8004ef4:	d8c00517 	ldw	r3,20(sp)
 8004ef8:	d9002317 	ldw	r4,140(sp)
 8004efc:	d9802517 	ldw	r6,148(sp)
 8004f00:	b8000005 	stb	zero,0(r23)
 8004f04:	18800044 	addi	r2,r3,1
 8004f08:	20800015 	stw	r2,0(r4)
 8004f0c:	30027226 	beq	r6,zero,80058d8 <_dtoa_r+0x10a8>
 8004f10:	35c00015 	stw	r23,0(r6)
 8004f14:	d8800717 	ldw	r2,28(sp)
 8004f18:	003e7406 	br	80048ec <__alt_data_end+0xfc0048ec>
 8004f1c:	00800434 	movhi	r2,16
 8004f20:	10bfffc4 	addi	r2,r2,-1
 8004f24:	a8aa703a 	and	r21,r21,r2
 8004f28:	a83e801e 	bne	r21,zero,800492c <__alt_data_end+0xfc00492c>
 8004f2c:	00820074 	movhi	r2,2049
 8004f30:	10820004 	addi	r2,r2,2048
 8004f34:	003e7f06 	br	8004934 <__alt_data_end+0xfc004934>
 8004f38:	10c00204 	addi	r3,r2,8
 8004f3c:	003e8206 	br	8004948 <__alt_data_end+0xfc004948>
 8004f40:	01400434 	movhi	r5,16
 8004f44:	297fffc4 	addi	r5,r5,-1
 8004f48:	994a703a 	and	r5,r19,r5
 8004f4c:	9009883a 	mov	r4,r18
 8004f50:	8c7f0044 	addi	r17,r17,-1023
 8004f54:	294ffc34 	orhi	r5,r5,16368
 8004f58:	dd000217 	ldw	r20,8(sp)
 8004f5c:	d8000f15 	stw	zero,60(sp)
 8004f60:	003e9f06 	br	80049e0 <__alt_data_end+0xfc0049e0>
 8004f64:	00820074 	movhi	r2,2049
 8004f68:	1081f704 	addi	r2,r2,2012
 8004f6c:	003e5f06 	br	80048ec <__alt_data_end+0xfc0048ec>
 8004f70:	80001115 	stw	zero,68(r16)
 8004f74:	8009883a 	mov	r4,r16
 8004f78:	000b883a 	mov	r5,zero
 8004f7c:	8007e6c0 	call	8007e6c <_Balloc>
 8004f80:	01bfffc4 	movi	r6,-1
 8004f84:	d8800715 	stw	r2,28(sp)
 8004f88:	80801015 	stw	r2,64(r16)
 8004f8c:	00800044 	movi	r2,1
 8004f90:	d9800615 	stw	r6,24(sp)
 8004f94:	d8800b15 	stw	r2,44(sp)
 8004f98:	d8002215 	stw	zero,136(sp)
 8004f9c:	d9800d15 	stw	r6,52(sp)
 8004fa0:	d8000315 	stw	zero,12(sp)
 8004fa4:	d8800117 	ldw	r2,4(sp)
 8004fa8:	10008e16 	blt	r2,zero,80051e4 <_dtoa_r+0x9b4>
 8004fac:	d9000517 	ldw	r4,20(sp)
 8004fb0:	00c00384 	movi	r3,14
 8004fb4:	19008b16 	blt	r3,r4,80051e4 <_dtoa_r+0x9b4>
 8004fb8:	200490fa 	slli	r2,r4,3
 8004fbc:	00c20074 	movhi	r3,2049
 8004fc0:	d9802217 	ldw	r6,136(sp)
 8004fc4:	18c21f04 	addi	r3,r3,2172
 8004fc8:	1885883a 	add	r2,r3,r2
 8004fcc:	14400017 	ldw	r17,0(r2)
 8004fd0:	15000117 	ldw	r20,4(r2)
 8004fd4:	3001c716 	blt	r6,zero,80056f4 <_dtoa_r+0xec4>
 8004fd8:	880d883a 	mov	r6,r17
 8004fdc:	a00f883a 	mov	r7,r20
 8004fe0:	9009883a 	mov	r4,r18
 8004fe4:	980b883a 	mov	r5,r19
 8004fe8:	8000cfc0 	call	8000cfc <__divdf3>
 8004fec:	180b883a 	mov	r5,r3
 8004ff0:	1009883a 	mov	r4,r2
 8004ff4:	8001ee80 	call	8001ee8 <__fixdfsi>
 8004ff8:	1009883a 	mov	r4,r2
 8004ffc:	102d883a 	mov	r22,r2
 8005000:	800d7180 	call	800d718 <__floatsidf>
 8005004:	1009883a 	mov	r4,r2
 8005008:	180b883a 	mov	r5,r3
 800500c:	880d883a 	mov	r6,r17
 8005010:	a00f883a 	mov	r7,r20
 8005014:	800167c0 	call	800167c <__muldf3>
 8005018:	9009883a 	mov	r4,r18
 800501c:	980b883a 	mov	r5,r19
 8005020:	100d883a 	mov	r6,r2
 8005024:	180f883a 	mov	r7,r3
 8005028:	800ce480 	call	800ce48 <__subdf3>
 800502c:	d9000717 	ldw	r4,28(sp)
 8005030:	d9800617 	ldw	r6,24(sp)
 8005034:	180b883a 	mov	r5,r3
 8005038:	b0c00c04 	addi	r3,r22,48
 800503c:	20c00005 	stb	r3,0(r4)
 8005040:	25c00044 	addi	r23,r4,1
 8005044:	01000044 	movi	r4,1
 8005048:	1011883a 	mov	r8,r2
 800504c:	2807883a 	mov	r3,r5
 8005050:	31003d26 	beq	r6,r4,8005148 <_dtoa_r+0x918>
 8005054:	000d883a 	mov	r6,zero
 8005058:	01d00934 	movhi	r7,16420
 800505c:	1009883a 	mov	r4,r2
 8005060:	800167c0 	call	800167c <__muldf3>
 8005064:	1009883a 	mov	r4,r2
 8005068:	180b883a 	mov	r5,r3
 800506c:	000d883a 	mov	r6,zero
 8005070:	000f883a 	mov	r7,zero
 8005074:	1027883a 	mov	r19,r2
 8005078:	182b883a 	mov	r21,r3
 800507c:	800cc040 	call	800cc04 <__eqdf2>
 8005080:	103f9926 	beq	r2,zero,8004ee8 <__alt_data_end+0xfc004ee8>
 8005084:	d8c00617 	ldw	r3,24(sp)
 8005088:	d9000717 	ldw	r4,28(sp)
 800508c:	b825883a 	mov	r18,r23
 8005090:	18bfffc4 	addi	r2,r3,-1
 8005094:	20ad883a 	add	r22,r4,r2
 8005098:	dc000315 	stw	r16,12(sp)
 800509c:	00000a06 	br	80050c8 <_dtoa_r+0x898>
 80050a0:	800167c0 	call	800167c <__muldf3>
 80050a4:	1009883a 	mov	r4,r2
 80050a8:	180b883a 	mov	r5,r3
 80050ac:	000d883a 	mov	r6,zero
 80050b0:	000f883a 	mov	r7,zero
 80050b4:	1027883a 	mov	r19,r2
 80050b8:	182b883a 	mov	r21,r3
 80050bc:	b825883a 	mov	r18,r23
 80050c0:	800cc040 	call	800cc04 <__eqdf2>
 80050c4:	10022626 	beq	r2,zero,8005960 <_dtoa_r+0x1130>
 80050c8:	880d883a 	mov	r6,r17
 80050cc:	a00f883a 	mov	r7,r20
 80050d0:	9809883a 	mov	r4,r19
 80050d4:	a80b883a 	mov	r5,r21
 80050d8:	8000cfc0 	call	8000cfc <__divdf3>
 80050dc:	180b883a 	mov	r5,r3
 80050e0:	1009883a 	mov	r4,r2
 80050e4:	8001ee80 	call	8001ee8 <__fixdfsi>
 80050e8:	1009883a 	mov	r4,r2
 80050ec:	1021883a 	mov	r16,r2
 80050f0:	800d7180 	call	800d718 <__floatsidf>
 80050f4:	1009883a 	mov	r4,r2
 80050f8:	180b883a 	mov	r5,r3
 80050fc:	880d883a 	mov	r6,r17
 8005100:	a00f883a 	mov	r7,r20
 8005104:	800167c0 	call	800167c <__muldf3>
 8005108:	9809883a 	mov	r4,r19
 800510c:	a80b883a 	mov	r5,r21
 8005110:	100d883a 	mov	r6,r2
 8005114:	180f883a 	mov	r7,r3
 8005118:	800ce480 	call	800ce48 <__subdf3>
 800511c:	82000c04 	addi	r8,r16,48
 8005120:	92000005 	stb	r8,0(r18)
 8005124:	1009883a 	mov	r4,r2
 8005128:	180b883a 	mov	r5,r3
 800512c:	000d883a 	mov	r6,zero
 8005130:	01d00934 	movhi	r7,16420
 8005134:	1011883a 	mov	r8,r2
 8005138:	bdc00044 	addi	r23,r23,1
 800513c:	95bfd81e 	bne	r18,r22,80050a0 <__alt_data_end+0xfc0050a0>
 8005140:	802d883a 	mov	r22,r16
 8005144:	dc000317 	ldw	r16,12(sp)
 8005148:	4009883a 	mov	r4,r8
 800514c:	180b883a 	mov	r5,r3
 8005150:	400d883a 	mov	r6,r8
 8005154:	180f883a 	mov	r7,r3
 8005158:	800c3680 	call	800c368 <__adddf3>
 800515c:	8809883a 	mov	r4,r17
 8005160:	a00b883a 	mov	r5,r20
 8005164:	100d883a 	mov	r6,r2
 8005168:	180f883a 	mov	r7,r3
 800516c:	1027883a 	mov	r19,r2
 8005170:	1825883a 	mov	r18,r3
 8005174:	800cd680 	call	800cd68 <__ledf2>
 8005178:	10000816 	blt	r2,zero,800519c <_dtoa_r+0x96c>
 800517c:	8809883a 	mov	r4,r17
 8005180:	a00b883a 	mov	r5,r20
 8005184:	980d883a 	mov	r6,r19
 8005188:	900f883a 	mov	r7,r18
 800518c:	800cc040 	call	800cc04 <__eqdf2>
 8005190:	103f551e 	bne	r2,zero,8004ee8 <__alt_data_end+0xfc004ee8>
 8005194:	b580004c 	andi	r22,r22,1
 8005198:	b03f5326 	beq	r22,zero,8004ee8 <__alt_data_end+0xfc004ee8>
 800519c:	bd7fffc3 	ldbu	r21,-1(r23)
 80051a0:	b8bfffc4 	addi	r2,r23,-1
 80051a4:	1007883a 	mov	r3,r2
 80051a8:	01400e44 	movi	r5,57
 80051ac:	d9800717 	ldw	r6,28(sp)
 80051b0:	00000506 	br	80051c8 <_dtoa_r+0x998>
 80051b4:	18ffffc4 	addi	r3,r3,-1
 80051b8:	30825e26 	beq	r6,r2,8005b34 <_dtoa_r+0x1304>
 80051bc:	1d400003 	ldbu	r21,0(r3)
 80051c0:	102f883a 	mov	r23,r2
 80051c4:	10bfffc4 	addi	r2,r2,-1
 80051c8:	a9003fcc 	andi	r4,r21,255
 80051cc:	2100201c 	xori	r4,r4,128
 80051d0:	213fe004 	addi	r4,r4,-128
 80051d4:	217ff726 	beq	r4,r5,80051b4 <__alt_data_end+0xfc0051b4>
 80051d8:	aa000044 	addi	r8,r21,1
 80051dc:	12000005 	stb	r8,0(r2)
 80051e0:	003f4106 	br	8004ee8 <__alt_data_end+0xfc004ee8>
 80051e4:	d8c00b17 	ldw	r3,44(sp)
 80051e8:	18006726 	beq	r3,zero,8005388 <_dtoa_r+0xb58>
 80051ec:	d9000317 	ldw	r4,12(sp)
 80051f0:	00c00044 	movi	r3,1
 80051f4:	19016a0e 	bge	r3,r4,80057a0 <_dtoa_r+0xf70>
 80051f8:	d8800617 	ldw	r2,24(sp)
 80051fc:	d8c00917 	ldw	r3,36(sp)
 8005200:	157fffc4 	addi	r21,r2,-1
 8005204:	1d420716 	blt	r3,r21,8005a24 <_dtoa_r+0x11f4>
 8005208:	1d6bc83a 	sub	r21,r3,r21
 800520c:	d8800617 	ldw	r2,24(sp)
 8005210:	1002c716 	blt	r2,zero,8005d30 <_dtoa_r+0x1500>
 8005214:	dd000817 	ldw	r20,32(sp)
 8005218:	d8800617 	ldw	r2,24(sp)
 800521c:	d9800817 	ldw	r6,32(sp)
 8005220:	8009883a 	mov	r4,r16
 8005224:	01400044 	movi	r5,1
 8005228:	308d883a 	add	r6,r6,r2
 800522c:	d9800815 	stw	r6,32(sp)
 8005230:	b0ad883a 	add	r22,r22,r2
 8005234:	80082940 	call	8008294 <__i2b>
 8005238:	1023883a 	mov	r17,r2
 800523c:	a0000826 	beq	r20,zero,8005260 <_dtoa_r+0xa30>
 8005240:	0580070e 	bge	zero,r22,8005260 <_dtoa_r+0xa30>
 8005244:	b005883a 	mov	r2,r22
 8005248:	a5812016 	blt	r20,r22,80056cc <_dtoa_r+0xe9c>
 800524c:	d8c00817 	ldw	r3,32(sp)
 8005250:	a0a9c83a 	sub	r20,r20,r2
 8005254:	b0adc83a 	sub	r22,r22,r2
 8005258:	1887c83a 	sub	r3,r3,r2
 800525c:	d8c00815 	stw	r3,32(sp)
 8005260:	d9000917 	ldw	r4,36(sp)
 8005264:	0100140e 	bge	zero,r4,80052b8 <_dtoa_r+0xa88>
 8005268:	d9800b17 	ldw	r6,44(sp)
 800526c:	3001e526 	beq	r6,zero,8005a04 <_dtoa_r+0x11d4>
 8005270:	05400e0e 	bge	zero,r21,80052ac <_dtoa_r+0xa7c>
 8005274:	880b883a 	mov	r5,r17
 8005278:	8009883a 	mov	r4,r16
 800527c:	a80d883a 	mov	r6,r21
 8005280:	80085600 	call	8008560 <__pow5mult>
 8005284:	e00d883a 	mov	r6,fp
 8005288:	8009883a 	mov	r4,r16
 800528c:	100b883a 	mov	r5,r2
 8005290:	1023883a 	mov	r17,r2
 8005294:	80082d00 	call	80082d0 <__multiply>
 8005298:	102f883a 	mov	r23,r2
 800529c:	e00b883a 	mov	r5,fp
 80052a0:	8009883a 	mov	r4,r16
 80052a4:	8007f140 	call	8007f14 <_Bfree>
 80052a8:	b839883a 	mov	fp,r23
 80052ac:	d8800917 	ldw	r2,36(sp)
 80052b0:	154dc83a 	sub	r6,r2,r21
 80052b4:	3001281e 	bne	r6,zero,8005758 <_dtoa_r+0xf28>
 80052b8:	05c00044 	movi	r23,1
 80052bc:	8009883a 	mov	r4,r16
